(dp0
S'ay'
p1
(lp2
I0
aI0
aI0
aI0
aI0
aI0
aI0
aI0
aI0
aI0
aI0
aI0
aF0.0
aF0.0
aF0.0
aF0.0
aF0.0
aF0.0
aF0.0
aF0.0
aF4.48476836437319
aF4.48476836437319
aF4.48476836437319
aF4.48476836437319
aF3.640068234421166
aF3.640068234421166
aF3.640068234421166
aF3.640068234421166
aF9.879062682624955
aF9.879062682624955
aF9.879062682624955
aF9.879062682624955
aF9.879062682624955
aF7.800707479161603
aF7.800707479161603
aF7.800707479161603
aF7.800707479161603
aF7.800707479161603
aF6.356859582615701
aF6.356859582615701
aF6.356859582615701
aF6.356859582615701
aF6.356859582615701
aF6.547408216581622
aF6.547408216581622
aF6.547408216581622
aF4.588882566437045
aF4.588882566437045
aF4.588882566437045
aF4.588882566437045
aF4.588882566437045
aF3.7520401121124807
aF3.7520401121124807
aF3.7520401121124807
aF3.7520401121124807
aF3.7520401121124807
aF2.8916246309055347
aF2.8916246309055347
aF2.8916246309055347
aF2.8916246309055347
aF0.4675316998339112
aF0.4675316998339112
aF0.4675316998339112
aF0.4675316998339112
aF-0.40663471372109083
aF-0.40663471372109083
aF-0.40663471372109083
aF-0.40663471372109083
aF-0.40663471372109083
aF-2.21390010803705
aF-2.21390010803705
aF-2.21390010803705
aF-2.21390010803705
aF-1.7188665435070265
aF-1.7188665435070265
aF-1.7188665435070265
aF-1.7188665435070265
aF-1.7188665435070265
aF-0.46360286202018086
aF-0.46360286202018086
aF-0.46360286202018086
aF-0.46360286202018086
aF-1.214010884442677
aF-1.214010884442677
aF-1.214010884442677
aF-1.214010884442677
aF0.38109726793184356
aF0.38109726793184356
aF0.38109726793184356
aF0.38109726793184356
aF-0.9507787509227438
aF-0.9507787509227438
aF-0.9507787509227438
aF-0.9507787509227438
aF-0.9507787509227438
aF1.575463963305869
aF1.575463963305869
aF1.575463963305869
aF1.575463963305869
aF0.0
aF0.0
aF0.0
aF0.0
aF0.9350633996678224
aF0.9350633996678224
aF0.9350633996678224
aF0.9350633996678224
aF0.0
aF0.0
aF0.0
aF0.0
aF0.0
aF0.0
aF0.0
aF0.0
aF0.0
aF0.5853968342458216
aF0.5853968342458216
aF0.5853968342458216
aF0.5853968342458216
aF-0.5853968342458216
aF-0.5853968342458216
aF-0.5853968342458216
aF-0.5853968342458216
aF1.6952935166246443
aF1.6952935166246443
aF1.6952935166246443
aF1.6952935166246443
aF1.3750932348056213
aF1.3750932348056213
aF1.3750932348056213
aF1.3750932348056213
aF0.874166413555002
aF0.874166413555002
aF0.874166413555002
aF0.874166413555002
aF2.404448742002972
aF2.404448742002972
aF2.404448742002972
aF2.404448742002972
aF4.897296334814877
aF4.897296334814877
aF4.897296334814877
aF4.897296334814877
aF4.897296334814877
aF1.9074507585660831
aF1.9074507585660831
aF1.9074507585660831
aF1.9074507585660831
aF0.7052263875645971
aF0.7052263875645971
aF0.7052263875645971
aF-1.8563758669875885
aF-1.8563758669875885
aF-1.8563758669875885
aF-1.8563758669875885
aF-1.8563758669875885
aF-3.2825439933717044
aF-3.2825439933717044
aF-3.2825439933717044
aF-3.767755463367402
aF-3.767755463367402
aF-3.767755463367402
aF-3.767755463367402
aF-4.080098069558964
aF-4.080098069558964
aF-4.080098069558964
aF-4.080098069558964
aF-4.080098069558964
aF-3.233433520700075
aF-3.233433520700075
aF-3.233433520700075
aF-5.2685715082123945
aF-5.2685715082123945
aF-5.2685715082123945
aF-5.2685715082123945
aF-4.714605376476415
aF-4.714605376476415
aF-4.714605376476415
aF-4.714605376476415
aF-3.0350272111066925
aF-3.0350272111066925
aF-3.0350272111066925
aF-3.0350272111066925
aF-3.3768361009012327
aF-3.3768361009012327
aF-3.3768361009012327
aF-3.3768361009012327
aF-3.5634558970534242
aF-3.5634558970534242
aF-3.5634558970534242
aF-3.5634558970534242
aF-13.367870661217504
aF-13.367870661217504
aF-13.367870661217504
aF-13.367870661217504
aF-8.696482500692122
aF-8.696482500692122
aF-8.696482500692122
aF-8.696482500692122
aF-7.529617670014209
aF-7.529617670014209
aF-7.529617670014209
aF-7.529617670014209
aF-6.254709799458711
aF-6.254709799458711
aF-6.254709799458711
aF-6.254709799458711
aF-3.34933423620512
aF-3.34933423620512
aF-3.34933423620512
aF-3.34933423620512
aF-2.325871985728365
aF-2.325871985728365
aF-2.325871985728365
aF-2.325871985728365
aF-1.0961457500307665
aF-1.0961457500307665
aF-1.0961457500307665
aF-1.304374154158475
aF-1.304374154158475
aF-1.304374154158475
aF-1.304374154158475
aF-2.734471118356321
aF-2.734471118356321
aF-2.734471118356321
aF-2.734471118356321
aF-1.1373985470749353
aF-1.1373985470749353
aF-1.1373985470749353
aF-1.1373985470749353
aF0.0
aF0.0
aF0.0
aF-1.7326174758550827
aF-1.7326174758550827
aF-1.7326174758550827
aF-1.7326174758550827
aF-1.5793928011195992
aF-1.5793928011195992
aF-1.5793928011195992
aF-1.5793928011195992
aF-1.0902524933101712
aF-1.0902524933101712
aF-1.0902524933101712
aF-1.0902524933101712
aF-1.3888441671536773
aF-1.3888441671536773
aF-1.3888441671536773
aF-1.3888441671536773
aF-1.4045595184085988
aF-1.4045595184085988
aF-1.4045595184085988
aF-1.0804303987758452
aF-1.0804303987758452
aF-1.0804303987758452
aF-1.0804303987758452
aF-0.8977394404373841
aF-0.8977394404373841
aF-0.8977394404373841
aF-0.8977394404373841
aF-3.893478273406773
aF-3.893478273406773
aF-3.893478273406773
aF-3.893478273406773
aF1.7444039892962737
aF1.7444039892962737
aF1.7444039892962737
aF-2.6166059839444107
aF-2.6166059839444107
aF-2.6166059839444107
aF-2.6166059839444107
aF0.7130840631920579
aF0.7130840631920579
aF0.7130840631920579
aF0.7130840631920579
aF2.4339150256059496
aF2.4339150256059496
aF2.4339150256059496
aF1.4497411532664977
aF1.4497411532664977
aF1.4497411532664977
aF1.4497411532664977
aF-0.26716097133366357
aF-0.26716097133366357
aF-0.26716097133366357
aF-0.26716097133366357
aF-1.1982955331877556
aF-1.1982955331877556
aF-1.1982955331877556
aF0.38502610574557394
aF0.38502610574557394
aF0.38502610574557394
aF0.5127133346918102
aF0.5127133346918102
aF0.5127133346918102
aF0.5127133346918102
aF1.0588217908003283
aF1.0588217908003283
aF1.0588217908003283
aF1.0588217908003283
aF3.186287466935311
aF3.186287466935311
aF3.186287466935311
aF6.92261222779287
aF6.92261222779287
aF6.92261222779287
aF6.92261222779287
aF2.620534821758141
aF2.620534821758141
aF2.620534821758141
aF2.620534821758141
aF2.021387055164263
aF2.021387055164263
aF2.021387055164263
aF3.304152601347221
aF3.304152601347221
aF3.304152601347221
aF3.304152601347221
aF9.58047100878145
aF9.58047100878145
aF9.58047100878145
aF6.3863258662186775
aF6.3863258662186775
aF6.3863258662186775
aF6.3863258662186775
aF7.851782370740097
aF7.851782370740097
aF7.851782370740097
aF9.464570293276404
aF9.464570293276404
aF9.464570293276404
aF9.464570293276404
aF6.101485124723228
aF6.101485124723228
aF6.101485124723228
aF6.5965186892532515
aF6.5965186892532515
aF6.5965186892532515
aF6.5965186892532515
aF5.38447222371744
aF5.38447222371744
aF5.38447222371744
aF3.9190157191960204
aF3.9190157191960204
aF3.9190157191960204
aF5.484657587967563
aF5.484657587967563
aF5.484657587967563
aF5.484657587967563
aF3.40237354669048
aF3.40237354669048
aF3.40237354669048
aF2.9918099951556587
aF2.9918099951556587
aF2.9918099951556587
aF2.9918099951556587
aF2.4358794445128145
aF2.4358794445128145
aF2.4358794445128145
aF2.143181027389904
aF2.143181027389904
aF2.143181027389904
aF2.143181027389904
aF1.952632393423982
aF1.952632393423982
aF1.952632393423982
aF1.5126025582861833
aF1.5126025582861833
aF1.5126025582861833
aF1.5126025582861833
aF0.39681261918676497
aF0.39681261918676497
aF0.39681261918676497
aF0.0
aF0.0
aF0.0
aF0.0
aF-0.6227207934762599
aF-0.6227207934762599
aF-0.6227207934762599
aF0.30252051165723665
aF0.30252051165723665
aF0.30252051165723665
aF-0.36931075449065254
aF-0.36931075449065254
aF-0.36931075449065254
aF-0.36931075449065254
aF-0.21412166084830386
aF-0.21412166084830386
aF-0.21412166084830386
aF0.5971833476870126
aF0.5971833476870126
aF0.5971833476870126
aF0.0
aF0.0
aF0.0
aF0.0
aF0.0
aF0.0
aF0.0
aF0.0
aF0.0
aF0.0
aF0.0
aF0.6109342800350689
aF0.6109342800350689
aF0.6109342800350689
aF-0.45967402420645054
aF-0.45967402420645054
aF-0.45967402420645054
aF-0.43610099732406843
aF-0.43610099732406843
aF-0.43610099732406843
aF-0.43610099732406843
aF0.22197933647576457
aF0.22197933647576457
aF0.22197933647576457
aF-0.6168275367556644
aF-0.6168275367556644
aF-0.6168275367556644
aF-0.5834324153389564
aF-0.5834324153389564
aF-0.5834324153389564
aF-0.5834324153389564
aF-0.5696814829909002
aF-0.5696814829909002
aF-0.5696814829909002
aF-0.28876957930918046
aF-0.28876957930918046
aF-0.28876957930918046
aF-0.28876957930918046
aF0.0
aF0.0
aF0.0
aF0.0
aF0.0
aF0.0
aF0.0
aF0.0
aF0.0
aF0.0
aF-0.7346926711675748
aF-0.7346926711675748
aF-0.7346926711675748
aF0.0
aF0.0
aF0.0
aF-0.39681261918676497
aF-0.39681261918676497
aF-0.39681261918676497
aF-0.39681261918676497
aF-0.2789474847748546
aF-0.2789474847748546
aF-0.2789474847748546
aF-0.2789474847748546
aF-0.2789474847748546
aF-0.2789474847748546
aF-0.2789474847748546
aF0.2416235255444163
aF0.2416235255444163
aF0.0
aF0.0
aF0.0
aF0.0
aF0.0
aF0.2789474847748546
aF0.2789474847748546
aF0.4675316998339112
aF0.4675316998339112
aF0.4675316998339112
aF0.0
aF0.0
aF0.0
aF0.0
aF0.0
aF0.0
aF-2.021387055164263
aF-2.021387055164263
aF-2.021387055164263
aF4.905154010442337
aF4.905154010442337
aF4.905154010442337
aF4.905154010442337
aF4.905154010442337
aF4.905154010442337
aF-0.38109726793184356
aF-1.202224371001486
aF-1.202224371001486
aF-1.202224371001486
aF-1.202224371001486
aF-1.202224371001486
aF0.6286140501968553
aF0.6286140501968553
aF-0.45181634857898983
aF-0.45181634857898983
aF-0.45181634857898983
aF-0.45181634857898983
aF0.0
aF0.0
aF-0.43413657841720327
asS'ax'
p3
(lp4
I0
aI0
aI0
aI0
aI0
aI0
aI0
aI0
aI0
aI0
aI0
aI0
aI0
aI0
aI0
aI0
aI0
aI0
aI0
aI0
aI0
aI0
aI0
aI0
aI0
aI0
aI0
aI0
aI0
aI0
aI0
aI0
aI0
aI0
aI0
aI0
aI0
aI0
aI0
aI0
aI0
aI0
aI0
aI0
aI0
aI0
aI0
aI0
aI0
aI0
aI0
aI0
aI0
aI0
aI0
aI0
aI0
aI0
aI0
aI0
aI0
aI0
aI0
aI0
aI0
aI0
aI0
aI0
aI0
aI0
aI0
aI0
aI0
aI0
aI0
aI0
aI0
aI0
aI0
aI0
aI0
aI0
aI0
aI0
aI0
aI0
aI0
aI0
aI0
aI0
aI0
aI0
aI0
aI0
aI0
aI0
aI0
aI0
aI0
aI0
aI0
aI0
aI0
aI0
aI0
aI0
aI0
aI0
aI0
aI0
aI0
aI0
aI0
aI0
aI0
aI0
aI0
aI0
aI0
aI0
aI0
aI0
aI0
aI0
aI0
aI0
aI0
aI0
aI0
aI0
aI0
aI0
aI0
aI0
aI0
aI0
aI0
aI0
aI0
aI0
aI0
aI0
aI0
aI0
aI0
aI0
aI0
aI0
aI0
aI0
aI0
aI0
aI0
aI0
aI0
aI0
aI0
aI0
aI0
aI0
aI0
aI0
aI0
aI0
aI0
aI0
aI0
aI0
aI0
aI0
aI0
aI0
aI0
aI0
aI0
aI0
aI0
aI0
aI0
aI0
aI0
aI0
aI0
aI0
aI0
aI0
aI0
aI0
aI0
aI0
aI0
aI0
aI0
aI0
aI0
aI0
aI0
aI0
aI0
aI0
aI0
aI0
aI0
aI0
aI0
aI0
aI0
aI0
aI0
aI0
aI0
aI0
aI0
aI0
aI0
aI0
aI0
aI0
aI0
aI0
aI0
aI0
aI0
aI0
aI0
aI0
aI0
aI0
aI0
aI0
aI0
aI0
aI0
aI0
aI0
aI0
aI0
aI0
aI0
aI0
aI0
aI0
aI0
aI0
aI0
aI0
aI0
aI0
aI0
aI0
aI0
aI0
aI0
aI0
aI0
aI0
aI0
aI0
aI0
aI0
aI0
aI0
aI0
aI0
aI0
aI0
aI0
aI0
aI0
aI0
aI0
aI0
aI0
aI0
aI0
aI0
aI0
aI0
aI0
aI0
aI0
aI0
aI0
aI0
aI0
aI0
aI0
aI0
aI0
aI0
aI0
aI0
aI0
aI0
aI0
aI0
aI0
aI0
aI0
aI0
aI0
aI0
aI0
aI0
aI0
aI0
aI0
aI0
aI0
aI0
aI0
aI0
aI0
aI0
aI0
aI0
aI0
aI0
aI0
aI0
aI0
aI0
aI0
aI0
aI0
aI0
aI0
aI0
aI0
aI0
aI0
aI0
aI0
aI0
aI0
aI0
aI0
aI0
aI0
aI0
aI0
aI0
aI0
aI0
aI0
aI0
aI0
aI0
aI0
aI0
aI0
aI0
aI0
aI0
aI0
aI0
aI0
aI0
aI0
aI0
aI0
aI0
aI0
aI0
aI0
aI0
aI0
aI0
aI0
aI0
aI0
aI0
aI0
aI0
aI0
aI0
aI0
aI0
aI0
aI0
aI0
aI0
aI0
aI0
aI0
aI0
aI0
aI0
aI0
aI0
aI0
aI0
aI0
aI0
aI0
aI0
aI0
aI0
aI0
aI0
aI0
aI0
aI0
aI0
aI0
aI0
aI0
aI0
aI0
aI0
aI0
aI0
aI0
aI0
aI0
aI0
aI0
aI0
aI0
aI0
aI0
aI0
aI0
aI0
aI0
aI0
aI0
aI0
aI0
aI0
aI0
aI0
aI0
aI0
aI0
aI0
aI0
aI0
aI0
aI0
aI0
aI0
aI0
aI0
aI0
aI0
aI0
aI0
aI0
aI0
aI0
aI0
aI0
aI0
aI0
aI0
aI0
aI0
aI0
aI0
aI0
aI0
aI0
aI0
aI0
aI0
aI0
aI0
aI0
aI0
aI0
aI0
aI0
aI0
aI0
aI0
aI0
aI0
aI0
aI0
aI0
aI0
aI0
aI0
aI0
aI0
aI0
aI0
aI0
aI0
aI0
aI0
aI0
aI0
aI0
aI0
aI0
aI0
aI0
aI0
aI0
asS'time'
p5
(lp6
F1516483383.83431
aF1516483383.855335
aF1516483383.876353
aF1516483383.896808
aF1516483383.917904
aF1516483383.939057
aF1516483383.960017
aF1516483383.981124
aF1516483384.00214
aF1516483384.023726
aF1516483384.044961
aF1516483384.066114
aF1516483384.088076
aF1516483384.10907
aF1516483384.129847
aF1516483384.150627
aF1516483384.171557
aF1516483384.192829
aF1516483384.214622
aF1516483384.235956
aF1516483384.257425
aF1516483384.278468
aF1516483384.299588
aF1516483384.321343
aF1516483384.342925
aF1516483384.364005
aF1516483384.385874
aF1516483384.407433
aF1516483384.429153
aF1516483384.451667
aF1516483384.472549
aF1516483384.495458
aF1516483384.517205
aF1516483384.538809
aF1516483384.560336
aF1516483384.581733
aF1516483384.60351
aF1516483384.626085
aF1516483384.650476
aF1516483384.672116
aF1516483384.694431
aF1516483384.716474
aF1516483384.738431
aF1516483384.76114
aF1516483384.783027
aF1516483384.80495
aF1516483384.827513
aF1516483384.849857
aF1516483384.871906
aF1516483384.894176
aF1516483384.915987
aF1516483384.938152
aF1516483384.960671
aF1516483384.982973
aF1516483385.005088
aF1516483385.027111
aF1516483385.05127
aF1516483385.074204
aF1516483385.096778
aF1516483385.119226
aF1516483385.14172
aF1516483385.163431
aF1516483385.185571
aF1516483385.20835
aF1516483385.230468
aF1516483385.252543
aF1516483385.276322
aF1516483385.298014
aF1516483385.320265
aF1516483385.344104
aF1516483385.366488
aF1516483385.388901
aF1516483385.412987
aF1516483385.435296
aF1516483385.457943
aF1516483385.482675
aF1516483385.505525
aF1516483385.527957
aF1516483385.557033
aF1516483385.579971
aF1516483385.602882
aF1516483385.626133
aF1516483385.651451
aF1516483385.674113
aF1516483385.69665
aF1516483385.721503
aF1516483385.744398
aF1516483385.766454
aF1516483385.79096
aF1516483385.81406
aF1516483385.837078
aF1516483385.860484
aF1516483385.883097
aF1516483385.906424
aF1516483385.929238
aF1516483385.956675
aF1516483385.979524
aF1516483386.003655
aF1516483386.027155
aF1516483386.053567
aF1516483386.075588
aF1516483386.098995
aF1516483386.122779
aF1516483386.145359
aF1516483386.168125
aF1516483386.19325
aF1516483386.216364
aF1516483386.239465
aF1516483386.263457
aF1516483386.286086
aF1516483386.3101
aF1516483386.333226
aF1516483386.357663
aF1516483386.38118
aF1516483386.40529
aF1516483386.430323
aF1516483386.457897
aF1516483386.481177
aF1516483386.50525
aF1516483386.529404
aF1516483386.555868
aF1516483386.580031
aF1516483386.605161
aF1516483386.6294
aF1516483386.654231
aF1516483386.6777
aF1516483386.701205
aF1516483386.724824
aF1516483386.748912
aF1516483386.772963
aF1516483386.796245
aF1516483386.819902
aF1516483386.843291
aF1516483386.868898
aF1516483386.89232
aF1516483386.91592
aF1516483386.939593
aF1516483386.963469
aF1516483386.986452
aF1516483387.011252
aF1516483387.034473
aF1516483387.058768
aF1516483387.082024
aF1516483387.108474
aF1516483387.132431
aF1516483387.157125
aF1516483387.181674
aF1516483387.207318
aF1516483387.232338
aF1516483387.258832
aF1516483387.283395
aF1516483387.309688
aF1516483387.334705
aF1516483387.358456
aF1516483387.38372
aF1516483387.408637
aF1516483387.433203
aF1516483387.460091
aF1516483387.485515
aF1516483387.511319
aF1516483387.536087
aF1516483387.560404
aF1516483387.586349
aF1516483387.611786
aF1516483387.637867
aF1516483387.660039
aF1516483387.685154
aF1516483387.709114
aF1516483387.732599
aF1516483387.761433
aF1516483387.786701
aF1516483387.812256
aF1516483387.835521
aF1516483387.859899
aF1516483387.886008
aF1516483387.911748
aF1516483387.93648
aF1516483387.961291
aF1516483387.986287
aF1516483388.012474
aF1516483388.036528
aF1516483388.061255
aF1516483388.087401
aF1516483388.11271
aF1516483388.138711
aF1516483388.161453
aF1516483388.187502
aF1516483388.212867
aF1516483388.239977
aF1516483388.26371
aF1516483388.291388
aF1516483388.31695
aF1516483388.341827
aF1516483388.366319
aF1516483388.390625
aF1516483388.416658
aF1516483388.442481
aF1516483388.46719
aF1516483388.494923
aF1516483388.520929
aF1516483388.545413
aF1516483388.570598
aF1516483388.595018
aF1516483388.622307
aF1516483388.648587
aF1516483388.674416
aF1516483388.700787
aF1516483388.72737
aF1516483388.752312
aF1516483388.777447
aF1516483388.802765
aF1516483388.831597
aF1516483388.860325
aF1516483388.887513
aF1516483388.912263
aF1516483388.93691
aF1516483388.966057
aF1516483388.992238
aF1516483389.019289
aF1516483389.044314
aF1516483389.069348
aF1516483389.096657
aF1516483389.122796
aF1516483389.14949
aF1516483389.17249
aF1516483389.200687
aF1516483389.228296
aF1516483389.253254
aF1516483389.279902
aF1516483389.305263
aF1516483389.333931
aF1516483389.365574
aF1516483389.392813
aF1516483389.420027
aF1516483389.444876
aF1516483389.4698
aF1516483389.496338
aF1516483389.522814
aF1516483389.548731
aF1516483389.57374
aF1516483389.601919
aF1516483389.628318
aF1516483389.655047
aF1516483389.67972
aF1516483389.70604
aF1516483389.733322
aF1516483389.758868
aF1516483389.785512
aF1516483389.811711
aF1516483389.839639
aF1516483389.867796
aF1516483389.896318
aF1516483389.92444
aF1516483389.949569
aF1516483389.973632
aF1516483390.000592
aF1516483390.027623
aF1516483390.054816
aF1516483390.079522
aF1516483390.10529
aF1516483390.131489
aF1516483390.158814
aF1516483390.183527
aF1516483390.209591
aF1516483390.237179
aF1516483390.270858
aF1516483390.299155
aF1516483390.326934
aF1516483390.353232
aF1516483390.378887
aF1516483390.407244
aF1516483390.436338
aF1516483390.462144
aF1516483390.488233
aF1516483390.513826
aF1516483390.542157
aF1516483390.574733
aF1516483390.603954
aF1516483390.630565
aF1516483390.657658
aF1516483390.683881
aF1516483390.713546
aF1516483390.739642
aF1516483390.772312
aF1516483390.799005
aF1516483390.825964
aF1516483390.85173
aF1516483390.881207
aF1516483390.909943
aF1516483390.939227
aF1516483390.970131
aF1516483390.996285
aF1516483391.021839
aF1516483391.04853
aF1516483391.076019
aF1516483391.10323
aF1516483391.130012
aF1516483391.157511
aF1516483391.18386
aF1516483391.211882
aF1516483391.237457
aF1516483391.267897
aF1516483391.296099
aF1516483391.321958
aF1516483391.347181
aF1516483391.374986
aF1516483391.402235
aF1516483391.431527
aF1516483391.458928
aF1516483391.486486
aF1516483391.515913
aF1516483391.544267
aF1516483391.576373
aF1516483391.60411
aF1516483391.632621
aF1516483391.65854
aF1516483391.685738
aF1516483391.716771
aF1516483391.746313
aF1516483391.776557
aF1516483391.805315
aF1516483391.831792
aF1516483391.856178
aF1516483391.883539
aF1516483391.914921
aF1516483391.943072
aF1516483391.976687
aF1516483392.001896
aF1516483392.030333
aF1516483392.058387
aF1516483392.085872
aF1516483392.114107
aF1516483392.144605
aF1516483392.17882
aF1516483392.207656
aF1516483392.234268
aF1516483392.264919
aF1516483392.29176
aF1516483392.319093
aF1516483392.348852
aF1516483392.378286
aF1516483392.40649
aF1516483392.436507
aF1516483392.464811
aF1516483392.491005
aF1516483392.52223
aF1516483392.551239
aF1516483392.581508
aF1516483392.607516
aF1516483392.636797
aF1516483392.664089
aF1516483392.692715
aF1516483392.71947
aF1516483392.7514
aF1516483392.77924
aF1516483392.810245
aF1516483392.84124
aF1516483392.870905
aF1516483392.90042
aF1516483392.930259
aF1516483392.956684
aF1516483392.984328
aF1516483393.01625
aF1516483393.045533
aF1516483393.077903
aF1516483393.104318
aF1516483393.134836
aF1516483393.161268
aF1516483393.189665
aF1516483393.219745
aF1516483393.245592
aF1516483393.278978
aF1516483393.304572
aF1516483393.332356
aF1516483393.361476
aF1516483393.390024
aF1516483393.420524
aF1516483393.449254
aF1516483393.481565
aF1516483393.508424
aF1516483393.536798
aF1516483393.56396
aF1516483393.594054
aF1516483393.627182
aF1516483393.655171
aF1516483393.686541
aF1516483393.719161
aF1516483393.747552
aF1516483393.782327
aF1516483393.810934
aF1516483393.841601
aF1516483393.87015
aF1516483393.899957
aF1516483393.92778
aF1516483393.957601
aF1516483393.985915
aF1516483394.017202
aF1516483394.047628
aF1516483394.079366
aF1516483394.109008
aF1516483394.136965
aF1516483394.164971
aF1516483394.193025
aF1516483394.219961
aF1516483394.24958
aF1516483394.283571
aF1516483394.313291
aF1516483394.344805
aF1516483394.375625
aF1516483394.404372
aF1516483394.431377
aF1516483394.461356
aF1516483394.490022
aF1516483394.519261
aF1516483394.54976
aF1516483394.584275
aF1516483394.615066
aF1516483394.644921
aF1516483394.672205
aF1516483394.701789
aF1516483394.729557
aF1516483394.756373
aF1516483394.786929
aF1516483394.814946
aF1516483394.845879
aF1516483394.878179
aF1516483394.905048
aF1516483394.932335
aF1516483394.960511
aF1516483394.989048
aF1516483395.021018
aF1516483395.04899
aF1516483395.082754
aF1516483395.114072
aF1516483395.143432
aF1516483395.17246
aF1516483395.199708
aF1516483395.231089
aF1516483395.259974
aF1516483395.292058
aF1516483395.31977
aF1516483395.35141
aF1516483395.386131
aF1516483395.416207
aF1516483395.445673
aF1516483395.475877
aF1516483395.505004
aF1516483395.533649
aF1516483395.564674
aF1516483395.595163
aF1516483395.62571
aF1516483395.654884
aF1516483395.689267
aF1516483395.717116
aF1516483395.749728
aF1516483395.778039
aF1516483395.809325
aF1516483395.837753
aF1516483395.8679
aF1516483395.901057
aF1516483395.931504
aF1516483395.961649
aF1516483395.99083
aF1516483396.022981
aF1516483396.056448
aF1516483396.087389
aF1516483396.118338
aF1516483396.150607
aF1516483396.185159
aF1516483396.215749
aF1516483396.246618
aF1516483396.283346
aF1516483396.315974
aF1516483396.34695
aF1516483396.38102
aF1516483396.410224
aF1516483396.441478
aF1516483396.470229
aF1516483396.499389
aF1516483396.526999
aF1516483396.560778
aF1516483396.589287
aF1516483396.621627
aF1516483396.651308
aF1516483396.681179
aF1516483396.710146
aF1516483396.742625
aF1516483396.773344
aF1516483396.804792
aF1516483396.833172
aF1516483396.858967
aF1516483396.890213
aF1516483396.921698
aF1516483396.951205
aF1516483396.985373
aF1516483397.016447
aF1516483397.046675
aF1516483397.080521
aF1516483397.112459
aF1516483397.142847
aF1516483397.176259
as.