(dp0
S'ay'
p1
(lp2
I0
aI0
aI0
aI0
aI0
aI0
aI0
aI0
aI0
aI0
aI0
aI0
aF-0.2573388767993377
aF-0.2573388767993377
aF-0.2573388767993377
aF-0.2573388767993377
aF-0.26912539024052873
aF-0.26912539024052873
aF-0.26912539024052873
aF-0.26912539024052873
aF-0.26912539024052873
aF-0.2534100389856073
aF-0.2534100389856073
aF-0.2534100389856073
aF-0.2534100389856073
aF-0.249481201171877
aF-0.249481201171877
aF-0.249481201171877
aF-0.249481201171877
aF-0.249481201171877
aF-0.261267714613068
aF-0.261267714613068
aF-0.261267714613068
aF-0.261267714613068
aF-0.2868051604023153
aF-0.2868051604023153
aF-0.2868051604023153
aF-0.2868051604023153
aF-0.2868051604023153
aF-0.2632321335199332
aF-0.2632321335199332
aF-0.2632321335199332
aF-0.2632321335199332
aF-0.2632321335199332
aF-0.2710898091473939
aF-0.2710898091473939
aF-0.2710898091473939
aF-0.2710898091473939
aF-0.2710898091473939
aF3.264864223209918
aF3.264864223209918
aF3.264864223209918
aF3.264864223209918
aF6.109342800350689
aF6.109342800350689
aF6.109342800350689
aF6.109342800350689
aF6.109342800350689
aF10.2601599505568
aF10.2601599505568
aF10.2601599505568
aF10.2601599505568
aF3.166643277866659
aF3.166643277866659
aF3.166643277866659
aF3.166643277866659
aF9.8653117502769
aF9.8653117502769
aF9.8653117502769
aF9.8653117502769
aF9.8653117502769
aF5.482693169060698
aF5.482693169060698
aF5.482693169060698
aF5.482693169060698
aF5.700743667722732
aF5.700743667722732
aF5.700743667722732
aF5.700743667722732
aF4.887474240280551
aF4.887474240280551
aF4.887474240280551
aF4.887474240280551
aF4.887474240280551
aF2.7403643750769167
aF2.7403643750769167
aF2.7403643750769167
aF2.7403643750769167
aF5.144813117079888
aF5.144813117079888
aF5.144813117079888
aF5.144813117079888
aF5.144813117079888
aF0.6305784691037206
aF0.6305784691037206
aF0.6305784691037206
aF0.6305784691037206
aF3.066457913616535
aF3.066457913616535
aF3.066457913616535
aF3.066457913616535
aF3.066457913616535
aF0.5991477665938778
aF0.5991477665938778
aF0.5991477665938778
aF0.5991477665938778
aF1.4811718557763405
aF1.4811718557763405
aF1.4811718557763405
aF1.4811718557763405
aF2.429986187792219
aF2.429986187792219
aF2.429986187792219
aF2.429986187792219
aF0.0
aF0.0
aF0.0
aF0.0
aF0.0
aF0.0
aF0.0
aF0.0
aF0.7936252383735299
aF0.7936252383735299
aF0.7936252383735299
aF0.7936252383735299
aF0.7936252383735299
aF-1.13543412816807
aF-1.13543412816807
aF-1.13543412816807
aF-1.13543412816807
aF1.304374154158475
aF1.304374154158475
aF1.304374154158475
aF1.304374154158475
aF1.304374154158475
aF0.22197933647576457
aF0.22197933647576457
aF0.22197933647576457
aF0.22197933647576457
aF-4.573167215182123
aF-4.573167215182123
aF-4.573167215182123
aF-12.808011272760929
aF-12.808011272760929
aF-12.808011272760929
aF-12.808011272760929
aF-12.808011272760929
aF-0.4498519296721247
aF-0.4498519296721247
aF-0.4498519296721247
aF-0.4498519296721247
aF0.8113050085353165
aF0.8113050085353165
aF0.8113050085353165
aF0.8113050085353165
aF-13.73521699680129
aF-13.73521699680129
aF-13.73521699680129
aF-13.73521699680129
aF-6.36078842042943
aF-6.36078842042943
aF-6.36078842042943
aF-6.36078842042943
aF-8.95382137749146
aF-8.95382137749146
aF-8.95382137749146
aF-8.95382137749146
aF-8.95382137749146
aF-13.837366779958279
aF-13.837366779958279
aF-13.837366779958279
aF-13.837366779958279
aF-24.160388135534763
aF-24.160388135534763
aF-24.160388135534763
aF-24.160388135534763
aF-3.5104165865680645
aF-3.5104165865680645
aF-3.5104165865680645
aF-3.5104165865680645
aF-10.845556784802621
aF-10.845556784802621
aF-10.845556784802621
aF-10.845556784802621
aF-9.054006741741583
aF-9.054006741741583
aF-9.054006741741583
aF-9.054006741741583
aF-5.146777535986754
aF-5.146777535986754
aF-5.146777535986754
aF-5.146777535986754
aF-2.60874830831695
aF-2.60874830831695
aF-2.60874830831695
aF-2.60874830831695
aF-3.7284670852300987
aF-3.7284670852300987
aF-3.7284670852300987
aF-3.7284670852300987
aF-2.765901820866164
aF-2.765901820866164
aF-2.765901820866164
aF-2.765901820866164
aF-1.9683477446789035
aF-1.9683477446789035
aF-1.9683477446789035
aF-1.9683477446789035
aF-1.007746899221834
aF-1.007746899221834
aF-1.007746899221834
aF-1.007746899221834
aF1.045070858452272
aF1.045070858452272
aF1.045070858452272
aF1.045070858452272
aF1.045070858452272
aF-0.2475167822650118
aF-0.2475167822650118
aF-0.2475167822650118
aF-0.2475167822650118
aF-0.33395121416707946
aF-0.33395121416707946
aF-0.33395121416707946
aF-0.33395121416707946
aF1.2159753033495422
aF1.2159753033495422
aF1.2159753033495422
aF1.2159753033495422
aF1.6383253683255543
aF1.6383253683255543
aF1.6383253683255543
aF1.6383253683255543
aF1.2513348436731153
aF1.2513348436731153
aF1.2513348436731153
aF1.5577841931440823
aF1.5577841931440823
aF1.5577841931440823
aF1.5577841931440823
aF-0.24358794445128146
aF-0.24358794445128146
aF-0.24358794445128146
aF-0.24358794445128146
aF0.6482582392655072
aF0.6482582392655072
aF0.6482582392655072
aF0.6482582392655072
aF-0.5598593884565743
aF-0.5598593884565743
aF-0.5598593884565743
aF-0.5598593884565743
aF3.131283737543086
aF3.131283737543086
aF3.131283737543086
aF3.131283737543086
aF3.131283737543086
aF5.317681980884023
aF5.317681980884023
aF5.317681980884023
aF2.3867689718411853
aF2.3867689718411853
aF2.3867689718411853
aF2.3867689718411853
aF21.531995638149162
aF21.531995638149162
aF21.531995638149162
aF15.312645379014025
aF15.312645379014025
aF15.312645379014025
aF15.312645379014025
aF16.935255396084656
aF16.935255396084656
aF16.935255396084656
aF13.587885578786402
aF13.587885578786402
aF13.587885578786402
aF13.587885578786402
aF13.212681567575155
aF13.212681567575155
aF13.212681567575155
aF13.212681567575155
aF11.955453467181444
aF11.955453467181444
aF11.955453467181444
aF11.955453467181444
aF7.339069036048286
aF7.339069036048286
aF7.339069036048286
aF7.339069036048286
aF2.1412166084830386
aF2.1412166084830386
aF2.1412166084830386
aF2.1412166084830386
aF3.154856764425468
aF3.154856764425468
aF3.154856764425468
aF1.793514461967903
aF1.793514461967903
aF1.793514461967903
aF1.793514461967903
aF2.915197657787917
aF2.915197657787917
aF2.915197657787917
aF2.915197657787917
aF-1.5027804637518574
aF-1.5027804637518574
aF-1.5027804637518574
aF-0.5441440372016529
aF-0.5441440372016529
aF-0.5441440372016529
aF-0.5441440372016529
aF0.5991477665938778
aF0.5991477665938778
aF0.5991477665938778
aF0.0
aF0.0
aF0.0
aF-0.29466283602977594
aF-0.29466283602977594
aF-0.29466283602977594
aF-0.29466283602977594
aF-0.29466283602977594
aF-0.8584510623000806
aF-0.8584510623000806
aF-0.8584510623000806
aF-0.8584510623000806
aF0.2926984171229108
aF0.2926984171229108
aF0.2926984171229108
aF0.2926984171229108
aF-1.1413273848886656
aF-1.1413273848886656
aF-1.1413273848886656
aF-1.1413273848886656
aF-0.2789474847748546
aF-0.2789474847748546
aF-0.2789474847748546
aF-0.5873612531526867
aF-0.5873612531526867
aF-0.5873612531526867
aF-0.5873612531526867
aF0.49306914562315846
aF0.49306914562315846
aF0.49306914562315846
aF0.9173836295060358
aF0.9173836295060358
aF0.9173836295060358
aF0.9173836295060358
aF0.35163098432886597
aF0.35163098432886597
aF0.35163098432886597
aF0.22787259319636008
aF0.22787259319636008
aF0.22787259319636008
aF0.6954042930302713
aF0.6954042930302713
aF0.6954042930302713
aF0.6954042930302713
aF0.6954042930302713
aF0.0
aF0.0
aF0.0
aF0.0
aF0.3712751733975177
aF0.3712751733975177
aF0.3712751733975177
aF0.3712751733975177
aF0.8093405896284513
aF0.8093405896284513
aF0.8093405896284513
aF-0.3496665654220008
aF-0.3496665654220008
aF-0.3496665654220008
aF-0.3496665654220008
aF-1.0332843450110811
aF-1.0332843450110811
aF-1.0332843450110811
aF0.4282433216966077
aF0.4282433216966077
aF0.4282433216966077
aF0.4282433216966077
aF1.2513348436731153
aF1.2513348436731153
aF1.2513348436731153
aF0.7739810493048782
aF0.7739810493048782
aF0.7739810493048782
aF0.7739810493048782
aF0.0
aF0.0
aF0.0
aF-13.475913701095088
aF-13.475913701095088
aF-13.475913701095088
aF-13.475913701095088
aF-7.729988398514457
aF-7.729988398514457
aF-7.729988398514457
aF-7.729988398514457
aF-3.033062792199827
aF-3.033062792199827
aF-3.033062792199827
aF1.259192519300576
aF1.259192519300576
aF1.259192519300576
aF1.259192519300576
aF0.0
aF0.0
aF0.0
aF-19.25719854399929
aF-19.25719854399929
aF-19.25719854399929
aF-19.145226666307977
aF-19.145226666307977
aF-19.145226666307977
aF-14.50919804610617
aF-14.50919804610617
aF-14.50919804610617
aF-14.50919804610617
aF-9.362420510119415
aF-9.362420510119415
aF-9.362420510119415
aF-5.197852427565248
aF-5.197852427565248
aF-5.197852427565248
aF-3.3905870332492887
aF-3.3905870332492887
aF-3.3905870332492887
aF-3.3905870332492887
aF-3.188251885842176
aF-3.188251885842176
aF-3.188251885842176
aF-3.188251885842176
aF-1.8347672590120716
aF-1.8347672590120716
aF-1.8347672590120716
aF-2.0331735686054544
aF-2.0331735686054544
aF-2.0331735686054544
aF-0.8113050085353165
aF-0.8113050085353165
aF-0.8113050085353165
aF-0.8113050085353165
aF-1.1373985470749353
aF-1.1373985470749353
aF-1.1373985470749353
aF-0.5068200779712146
aF-0.5068200779712146
aF-0.5068200779712146
aF-2.005671703909342
aF-2.005671703909342
aF-2.005671703909342
aF0.21608607975516905
aF0.21608607975516905
aF0.21608607975516905
aF0.21608607975516905
aF0.0
aF0.0
aF0.0
aF-0.7464791846087658
aF-0.7464791846087658
aF-0.7464791846087658
aF-0.7464791846087658
aF0.0
aF0.0
aF0.0
aF0.0
aF-0.6030766044076081
aF-0.6030766044076081
aF-0.6030766044076081
aF-0.6030766044076081
aF0.0
aF0.0
aF0.0
aF0.0
aF-0.38109726793184356
aF-0.38109726793184356
aF-0.38109726793184356
aF-0.42627890278974256
aF-0.42627890278974256
aF-0.42627890278974256
aF-0.3280579574464839
aF-0.3280579574464839
aF-0.3280579574464839
aF0.3673463355837874
aF0.3673463355837874
aF0.3673463355837874
aF0.3673463355837874
aF-0.4950335645300236
aF-0.4950335645300236
aF-0.4950335645300236
aF0.34770214651513565
aF0.34770214651513565
aF0.34770214651513565
aF0.5068200779712146
aF0.5068200779712146
aF0.5068200779712146
aF0.5068200779712146
aF1.1570427361435869
asS'ax'
p3
(lp4
I0
aI0
aI0
aI0
aI0
aI0
aI0
aI0
aI0
aI0
aI0
aI0
aI0
aI0
aI0
aI0
aI0
aI0
aI0
aI0
aI0
aI0
aI0
aI0
aI0
aI0
aI0
aI0
aI0
aI0
aI0
aI0
aI0
aI0
aI0
aI0
aI0
aI0
aI0
aI0
aI0
aI0
aI0
aI0
aI0
aI0
aI0
aI0
aI0
aI0
aI0
aI0
aI0
aI0
aI0
aI0
aI0
aI0
aI0
aI0
aI0
aI0
aI0
aI0
aI0
aI0
aI0
aI0
aI0
aI0
aI0
aI0
aI0
aI0
aI0
aI0
aI0
aI0
aI0
aI0
aI0
aI0
aI0
aI0
aI0
aI0
aI0
aI0
aI0
aI0
aI0
aI0
aI0
aI0
aI0
aI0
aI0
aI0
aI0
aI0
aI0
aI0
aI0
aI0
aI0
aI0
aI0
aI0
aI0
aI0
aI0
aI0
aI0
aI0
aI0
aI0
aI0
aI0
aI0
aI0
aI0
aI0
aI0
aI0
aI0
aI0
aI0
aI0
aI0
aI0
aI0
aI0
aI0
aI0
aI0
aI0
aI0
aI0
aI0
aI0
aI0
aI0
aI0
aI0
aI0
aI0
aI0
aI0
aI0
aI0
aI0
aI0
aI0
aI0
aI0
aI0
aI0
aI0
aI0
aI0
aI0
aI0
aI0
aI0
aI0
aI0
aI0
aI0
aI0
aI0
aI0
aI0
aI0
aI0
aI0
aI0
aI0
aI0
aI0
aI0
aI0
aI0
aI0
aI0
aI0
aI0
aI0
aI0
aI0
aI0
aI0
aI0
aI0
aI0
aI0
aI0
aI0
aI0
aI0
aI0
aI0
aI0
aI0
aI0
aI0
aI0
aI0
aI0
aI0
aI0
aI0
aI0
aI0
aI0
aI0
aI0
aI0
aI0
aI0
aI0
aI0
aI0
aI0
aI0
aI0
aI0
aI0
aI0
aI0
aI0
aI0
aI0
aI0
aI0
aI0
aI0
aI0
aI0
aI0
aI0
aI0
aI0
aI0
aI0
aI0
aI0
aI0
aI0
aI0
aI0
aI0
aI0
aI0
aI0
aI0
aI0
aI0
aI0
aI0
aI0
aI0
aI0
aI0
aI0
aI0
aI0
aI0
aI0
aI0
aI0
aI0
aI0
aI0
aI0
aI0
aI0
aI0
aI0
aI0
aI0
aI0
aI0
aI0
aI0
aI0
aI0
aI0
aI0
aI0
aI0
aI0
aI0
aI0
aI0
aI0
aI0
aI0
aI0
aI0
aI0
aI0
aI0
aI0
aI0
aI0
aI0
aI0
aI0
aI0
aI0
aI0
aI0
aI0
aI0
aI0
aI0
aI0
aI0
aI0
aI0
aI0
aI0
aI0
aI0
aI0
aI0
aI0
aI0
aI0
aI0
aI0
aI0
aI0
aI0
aI0
aI0
aI0
aI0
aI0
aI0
aI0
aI0
aI0
aI0
aI0
aI0
aI0
aI0
aI0
aI0
aI0
aI0
aI0
aI0
aI0
aI0
aI0
aI0
aI0
aI0
aI0
aI0
aI0
aI0
aI0
aI0
aI0
aI0
aI0
aI0
aI0
aI0
aI0
aI0
aI0
aI0
aI0
aI0
aI0
aI0
aI0
aI0
aI0
aI0
aI0
aI0
aI0
aI0
aI0
aI0
aI0
aI0
aI0
aI0
aI0
aI0
aI0
aI0
aI0
aI0
aI0
aI0
aI0
aI0
aI0
aI0
aI0
aI0
aI0
aI0
aI0
aI0
aI0
aI0
aI0
aI0
aI0
aI0
aI0
aI0
aI0
aI0
aI0
aI0
aI0
aI0
aI0
aI0
aI0
aI0
aI0
aI0
aI0
aI0
aI0
aI0
aI0
aI0
aI0
aI0
aI0
aI0
aI0
aI0
aI0
aI0
aI0
aI0
aI0
aI0
aI0
aI0
aI0
aI0
aI0
aI0
aI0
aI0
aI0
aI0
aI0
aI0
aI0
aI0
aI0
aI0
aI0
aI0
aI0
aI0
aI0
aI0
aI0
aI0
aI0
aI0
aI0
aI0
aI0
aI0
aI0
aI0
aI0
aI0
aI0
aI0
aI0
aI0
aI0
aI0
aI0
aI0
aI0
aI0
aI0
aI0
aI0
aI0
aI0
aI0
aI0
asS'time'
p5
(lp6
F1516482362.994941
aF1516482363.015794
aF1516482363.036235
aF1516482363.056701
aF1516482363.077492
aF1516482363.098271
aF1516482363.118869
aF1516482363.141235
aF1516482363.162286
aF1516482363.183269
aF1516482363.204503
aF1516482363.225582
aF1516482363.246974
aF1516482363.267699
aF1516482363.288844
aF1516482363.309801
aF1516482363.331049
aF1516482363.352009
aF1516482363.373476
aF1516482363.394765
aF1516482363.415845
aF1516482363.438248
aF1516482363.459309
aF1516482363.480907
aF1516482363.502671
aF1516482363.524
aF1516482363.545362
aF1516482363.566872
aF1516482363.588467
aF1516482363.610975
aF1516482363.632817
aF1516482363.654762
aF1516482363.676638
aF1516482363.698488
aF1516482363.720484
aF1516482363.742395
aF1516482363.763222
aF1516482363.784
aF1516482363.804724
aF1516482363.825486
aF1516482363.846426
aF1516482363.867167
aF1516482363.887896
aF1516482363.908835
aF1516482363.929662
aF1516482363.950841
aF1516482363.972946
aF1516482363.994988
aF1516482364.017177
aF1516482364.042825
aF1516482364.063995
aF1516482364.086089
aF1516482364.107853
aF1516482364.130074
aF1516482364.152583
aF1516482364.174637
aF1516482364.19576
aF1516482364.217761
aF1516482364.242968
aF1516482364.265399
aF1516482364.288054
aF1516482364.310231
aF1516482364.332792
aF1516482364.357309
aF1516482364.379816
aF1516482364.402083
aF1516482364.424967
aF1516482364.447535
aF1516482364.469988
aF1516482364.493126
aF1516482364.515764
aF1516482364.541493
aF1516482364.563235
aF1516482364.587463
aF1516482364.61055
aF1516482364.633685
aF1516482364.658185
aF1516482364.6799
aF1516482364.702964
aF1516482364.727379
aF1516482364.750077
aF1516482364.772317
aF1516482364.793433
aF1516482364.814454
aF1516482364.835477
aF1516482364.856726
aF1516482364.877695
aF1516482364.898672
aF1516482364.920576
aF1516482364.941732
aF1516482364.962766
aF1516482364.984914
aF1516482365.007644
aF1516482365.030292
aF1516482365.054361
aF1516482365.07748
aF1516482365.100881
aF1516482365.126039
aF1516482365.149991
aF1516482365.172438
aF1516482365.196706
aF1516482365.220319
aF1516482365.245403
aF1516482365.268434
aF1516482365.292951
aF1516482365.317043
aF1516482365.339674
aF1516482365.365719
aF1516482365.38976
aF1516482365.413145
aF1516482365.436935
aF1516482365.4618
aF1516482365.485136
aF1516482365.508363
aF1516482365.535124
aF1516482365.557996
aF1516482365.581755
aF1516482365.605336
aF1516482365.629792
aF1516482365.653399
aF1516482365.677204
aF1516482365.703318
aF1516482365.727447
aF1516482365.750952
aF1516482365.773461
aF1516482365.794713
aF1516482365.816071
aF1516482365.837441
aF1516482365.858742
aF1516482365.880107
aF1516482365.901514
aF1516482365.924082
aF1516482365.948576
aF1516482365.972701
aF1516482365.997863
aF1516482366.022183
aF1516482366.051614
aF1516482366.074751
aF1516482366.097657
aF1516482366.122106
aF1516482366.151267
aF1516482366.174557
aF1516482366.19968
aF1516482366.225016
aF1516482366.248702
aF1516482366.27231
aF1516482366.296632
aF1516482366.320293
aF1516482366.344879
aF1516482366.368859
aF1516482366.393143
aF1516482366.415767
aF1516482366.439471
aF1516482366.465633
aF1516482366.490551
aF1516482366.515296
aF1516482366.539957
aF1516482366.566998
aF1516482366.592297
aF1516482366.615494
aF1516482366.640383
aF1516482366.664929
aF1516482366.689118
aF1516482366.713091
aF1516482366.737157
aF1516482366.760531
aF1516482366.782117
aF1516482366.803729
aF1516482366.825534
aF1516482366.847343
aF1516482366.869016
aF1516482366.890601
aF1516482366.912249
aF1516482366.933925
aF1516482366.956003
aF1516482366.981556
aF1516482367.005128
aF1516482367.031476
aF1516482367.055359
aF1516482367.080588
aF1516482367.104792
aF1516482367.131026
aF1516482367.156568
aF1516482367.182875
aF1516482367.207284
aF1516482367.232667
aF1516482367.257507
aF1516482367.283528
aF1516482367.308733
aF1516482367.334955
aF1516482367.360643
aF1516482367.386575
aF1516482367.411223
aF1516482367.436511
aF1516482367.462578
aF1516482367.488889
aF1516482367.512889
aF1516482367.539642
aF1516482367.566074
aF1516482367.591694
aF1516482367.617138
aF1516482367.641462
aF1516482367.668059
aF1516482367.694221
aF1516482367.71873
aF1516482367.743012
aF1516482367.771172
aF1516482367.794075
aF1516482367.817221
aF1516482367.840166
aF1516482367.863203
aF1516482367.886294
aF1516482367.909258
aF1516482367.932325
aF1516482367.955193
aF1516482367.978161
aF1516482368.001225
aF1516482368.024511
aF1516482368.047492
aF1516482368.070587
aF1516482368.093693
aF1516482368.116975
aF1516482368.140204
aF1516482368.164113
aF1516482368.190696
aF1516482368.219291
aF1516482368.244631
aF1516482368.270013
aF1516482368.297464
aF1516482368.324809
aF1516482368.353808
aF1516482368.38065
aF1516482368.406626
aF1516482368.431638
aF1516482368.45829
aF1516482368.487886
aF1516482368.513275
aF1516482368.539099
aF1516482368.564255
aF1516482368.590921
aF1516482368.620049
aF1516482368.64829
aF1516482368.672458
aF1516482368.697438
aF1516482368.725271
aF1516482368.757403
aF1516482368.780287
aF1516482368.802449
aF1516482368.82489
aF1516482368.850104
aF1516482368.872268
aF1516482368.894453
aF1516482368.91694
aF1516482368.939053
aF1516482368.96126
aF1516482368.983467
aF1516482369.005634
aF1516482369.029075
aF1516482369.05751
aF1516482369.082969
aF1516482369.116031
aF1516482369.144988
aF1516482369.174196
aF1516482369.20349
aF1516482369.229017
aF1516482369.260692
aF1516482369.285683
aF1516482369.31175
aF1516482369.339755
aF1516482369.366917
aF1516482369.392244
aF1516482369.418463
aF1516482369.448013
aF1516482369.478962
aF1516482369.506798
aF1516482369.534528
aF1516482369.561863
aF1516482369.58771
aF1516482369.614057
aF1516482369.644252
aF1516482369.673202
aF1516482369.698719
aF1516482369.724609
aF1516482369.750385
aF1516482369.777196
aF1516482369.799618
aF1516482369.822066
aF1516482369.844532
aF1516482369.867206
aF1516482369.891331
aF1516482369.917353
aF1516482369.945904
aF1516482369.973868
aF1516482370.003019
aF1516482370.030186
aF1516482370.059003
aF1516482370.087709
aF1516482370.113254
aF1516482370.141449
aF1516482370.167756
aF1516482370.197145
aF1516482370.224268
aF1516482370.251065
aF1516482370.277715
aF1516482370.307407
aF1516482370.336349
aF1516482370.364723
aF1516482370.390634
aF1516482370.419196
aF1516482370.44686
aF1516482370.476771
aF1516482370.50443
aF1516482370.53435
aF1516482370.56511
aF1516482370.591568
aF1516482370.619413
aF1516482370.645708
aF1516482370.67666
aF1516482370.705893
aF1516482370.736037
aF1516482370.761902
aF1516482370.785456
aF1516482370.808295
aF1516482370.831208
aF1516482370.854077
aF1516482370.876903
aF1516482370.899648
aF1516482370.922419
aF1516482370.94537
aF1516482370.968218
aF1516482370.992294
aF1516482371.017219
aF1516482371.043393
aF1516482371.070902
aF1516482371.101211
aF1516482371.12933
aF1516482371.161598
aF1516482371.192967
aF1516482371.220468
aF1516482371.25112
aF1516482371.277757
aF1516482371.306959
aF1516482371.333776
aF1516482371.365421
aF1516482371.39576
aF1516482371.424434
aF1516482371.454927
aF1516482371.483762
aF1516482371.513501
aF1516482371.54033
aF1516482371.568609
aF1516482371.600423
aF1516482371.628299
aF1516482371.660529
aF1516482371.687022
aF1516482371.717069
aF1516482371.743905
aF1516482371.771137
aF1516482371.794188
aF1516482371.8173
aF1516482371.840642
aF1516482371.86406
aF1516482371.888834
aF1516482371.911792
aF1516482371.934821
aF1516482371.957929
aF1516482371.982152
aF1516482372.005144
aF1516482372.028232
aF1516482372.052463
aF1516482372.082353
aF1516482372.11071
aF1516482372.141049
aF1516482372.170123
aF1516482372.198433
aF1516482372.227234
aF1516482372.253812
aF1516482372.284734
aF1516482372.312235
aF1516482372.344507
aF1516482372.369799
aF1516482372.397505
aF1516482372.425718
aF1516482372.453899
aF1516482372.483065
aF1516482372.515203
aF1516482372.545739
aF1516482372.575844
aF1516482372.608657
aF1516482372.640121
aF1516482372.672541
aF1516482372.699748
aF1516482372.727873
aF1516482372.75684
aF1516482372.782485
aF1516482372.808068
aF1516482372.833474
aF1516482372.858837
aF1516482372.884218
aF1516482372.909856
aF1516482372.935322
aF1516482372.962918
aF1516482372.995863
aF1516482373.024086
aF1516482373.055234
aF1516482373.08468
aF1516482373.112012
aF1516482373.139475
aF1516482373.173902
aF1516482373.205427
aF1516482373.234756
aF1516482373.27037
aF1516482373.303332
aF1516482373.334683
aF1516482373.367261
aF1516482373.400927
aF1516482373.428777
aF1516482373.459767
aF1516482373.487808
aF1516482373.51728
aF1516482373.545044
aF1516482373.576064
aF1516482373.604561
aF1516482373.636585
aF1516482373.670565
aF1516482373.699972
aF1516482373.732344
aF1516482373.759166
aF1516482373.785725
aF1516482373.811337
aF1516482373.837187
aF1516482373.864402
aF1516482373.89066
aF1516482373.916342
aF1516482373.942127
aF1516482373.970221
aF1516482373.998913
aF1516482374.031635
aF1516482374.060376
aF1516482374.092597
aF1516482374.120048
aF1516482374.152321
aF1516482374.180576
aF1516482374.208124
aF1516482374.235819
aF1516482374.268932
aF1516482374.301022
aF1516482374.330821
aF1516482374.362175
aF1516482374.393375
aF1516482374.422873
aF1516482374.455213
aF1516482374.484327
aF1516482374.516419
aF1516482374.548653
aF1516482374.576887
aF1516482374.606886
aF1516482374.634178
aF1516482374.667283
aF1516482374.70167
aF1516482374.730601
aF1516482374.762443
aF1516482374.786332
aF1516482374.810071
aF1516482374.834004
aF1516482374.857973
aF1516482374.881786
aF1516482374.905697
aF1516482374.929641
aF1516482374.95359
aF1516482374.977463
aF1516482375.001356
aF1516482375.025181
aF1516482375.052503
aF1516482375.0818
aF1516482375.113554
aF1516482375.143499
aF1516482375.176317
aF1516482375.209529
aF1516482375.23846
aF1516482375.270711
aF1516482375.30274
aF1516482375.334505
aF1516482375.36402
aF1516482375.394674
aF1516482375.424614
aF1516482375.4537
aF1516482375.48311
aF1516482375.513872
aF1516482375.542437
aF1516482375.577551
aF1516482375.607648
aF1516482375.637698
aF1516482375.667942
aF1516482375.698213
aF1516482375.728676
aF1516482375.764091
aF1516482375.788219
aF1516482375.812164
aF1516482375.836522
aF1516482375.860487
as.