(dp0
S'ay'
p1
(lp2
I0
aI0
aI0
aI0
aI0
aI0
aI0
aI0
aI0
aI0
aI0
aI0
aF0.0
aF0.0
aF0.0
aF0.0
aF0.0
aF0.0
aF4.154745988019841
aF4.154745988019841
aF4.154745988019841
aF4.154745988019841
aF3.80115058478411
aF3.80115058478411
aF3.80115058478411
aF3.80115058478411
aF3.80115058478411
aF4.272611122431751
aF4.272611122431751
aF4.272611122431751
aF4.272611122431751
aF5.197852427565248
aF5.197852427565248
aF5.197852427565248
aF5.197852427565248
aF5.197852427565248
aF3.5889933428426715
aF3.5889933428426715
aF3.5889933428426715
aF3.5889933428426715
aF3.5889933428426715
aF3.1155683862881647
aF3.1155683862881647
aF3.1155683862881647
aF3.1155683862881647
aF2.4810610793707135
aF2.4810610793707135
aF2.4810610793707135
aF2.4810610793707135
aF3.188251885842176
aF3.188251885842176
aF3.188251885842176
aF3.188251885842176
aF3.188251885842176
aF4.4454799862358865
aF4.4454799862358865
aF4.4454799862358865
aF4.4454799862358865
aF3.2137893316314234
aF3.2137893316314234
aF3.2137893316314234
aF3.2137893316314234
aF3.2137893316314234
aF5.55144783080098
aF5.55144783080098
aF5.55144783080098
aF5.55144783080098
aF3.097888616126378
aF3.097888616126378
aF3.097888616126378
aF3.097888616126378
aF1.5577841931440823
aF1.5577841931440823
aF1.5577841931440823
aF1.5577841931440823
aF1.5577841931440823
aF0.0
aF0.0
aF0.0
aF0.0
aF8.17198265255912
aF8.17198265255912
aF8.17198265255912
aF8.17198265255912
aF8.17198265255912
aF0.555930550642844
aF0.555930550642844
aF0.555930550642844
aF0.555930550642844
aF0.0
aF0.0
aF0.0
aF0.0
aF1.6186811792569027
aF1.6186811792569027
aF1.6186811792569027
aF1.6186811792569027
aF2.133358932855578
aF2.133358932855578
aF2.133358932855578
aF2.133358932855578
aF2.133358932855578
aF-0.48521146999569775
aF-0.48521146999569775
aF-0.48521146999569775
aF-0.48521146999569775
aF0.0
aF0.0
aF0.0
aF0.0
aF1.5459976797028911
aF1.5459976797028911
aF1.5459976797028911
aF1.5459976797028911
aF0.21805049866203421
aF0.21805049866203421
aF0.21805049866203421
aF0.21805049866203421
aF0.0
aF0.0
aF0.0
aF0.0
aF0.0
aF0.0
aF0.0
aF0.0
aF1.1177543580062834
aF1.1177543580062834
aF1.1177543580062834
aF1.1177543580062834
aF0.0
aF0.0
aF0.0
aF0.0
aF-1.0627506286140587
aF-1.0627506286140587
aF-1.0627506286140587
aF-1.0627506286140587
aF0.0
aF0.0
aF0.0
aF0.0
aF0.9389922374815528
aF0.9389922374815528
aF0.9389922374815528
aF0.9389922374815528
aF-0.7798743060254737
aF-0.7798743060254737
aF-0.7798743060254737
aF-0.7798743060254737
aF0.6659380094272936
aF0.6659380094272936
aF0.6659380094272936
aF0.6659380094272936
aF-0.6639735905204285
aF-0.6639735905204285
aF-0.6639735905204285
aF-0.6639735905204285
aF1.113825520192553
aF1.113825520192553
aF1.113825520192553
aF1.113825520192553
aF-2.1038926492526002
aF-2.1038926492526002
aF-2.1038926492526002
aF-2.1038926492526002
aF0.5696814829909002
aF0.5696814829909002
aF0.5696814829909002
aF0.5696814829909002
aF0.6521870770792375
aF0.6521870770792375
aF0.6521870770792375
aF0.6521870770792375
aF-0.39877703809363013
aF-0.39877703809363013
aF-0.39877703809363013
aF-0.39877703809363013
aF0.4675316998339112
aF0.4675316998339112
aF0.4675316998339112
aF0.4675316998339112
aF0.47146053764764156
aF0.47146053764764156
aF0.47146053764764156
aF0.47146053764764156
aF0.5598593884565743
aF0.5598593884565743
aF0.5598593884565743
aF0.5598593884565743
aF-2.1647896353654206
aF-2.1647896353654206
aF-2.1647896353654206
aF-10.275875301811721
aF-10.275875301811721
aF-10.275875301811721
aF-10.275875301811721
aF-1.2788367083692278
aF-1.2788367083692278
aF-1.2788367083692278
asS'ax'
p3
(lp4
I0
aI0
aI0
aI0
aI0
aI0
aI0
aI0
aI0
aI0
aI0
aI0
aI0
aI0
aI0
aI0
aI0
aI0
aI0
aI0
aI0
aI0
aI0
aI0
aI0
aI0
aI0
aI0
aI0
aI0
aI0
aI0
aI0
aI0
aI0
aI0
aI0
aI0
aI0
aI0
aI0
aI0
aI0
aI0
aI0
aI0
aI0
aI0
aI0
aI0
aI0
aI0
aI0
aI0
aI0
aI0
aI0
aI0
aI0
aI0
aI0
aI0
aI0
aI0
aI0
aI0
aI0
aI0
aI0
aI0
aI0
aI0
aI0
aI0
aI0
aI0
aI0
aI0
aI0
aI0
aI0
aI0
aI0
aI0
aI0
aI0
aI0
aI0
aI0
aI0
aI0
aI0
aI0
aI0
aI0
aI0
aI0
aI0
aI0
aI0
aI0
aI0
aI0
aI0
aI0
aI0
aI0
aI0
aI0
aI0
aI0
aI0
aI0
aI0
aI0
aI0
aI0
aI0
aI0
aI0
aI0
aI0
aI0
aI0
aI0
aI0
aI0
aI0
aI0
aI0
aI0
aI0
aI0
aI0
aI0
aI0
aI0
aI0
aI0
aI0
aI0
aI0
aI0
aI0
aI0
aI0
aI0
aI0
aI0
aI0
aI0
aI0
aI0
aI0
aI0
aI0
aI0
aI0
aI0
aI0
aI0
aI0
aI0
aI0
aI0
aI0
aI0
aI0
aI0
aI0
aI0
aI0
aI0
aI0
aI0
aI0
aI0
aI0
aI0
aI0
aI0
aI0
aI0
aI0
aI0
aI0
aI0
aI0
aI0
aI0
aI0
aI0
aI0
aI0
aI0
aI0
aI0
aI0
aI0
aI0
asS'time'
p5
(lp6
F1516479312.478007
aF1516479312.498717
aF1516479312.519584
aF1516479312.540657
aF1516479312.561658
aF1516479312.582803
aF1516479312.603871
aF1516479312.62514
aF1516479312.646205
aF1516479312.667466
aF1516479312.688819
aF1516479312.71
aF1516479312.731812
aF1516479312.752445
aF1516479312.773532
aF1516479312.795558
aF1516479312.816897
aF1516479312.837701
aF1516479312.859018
aF1516479312.880387
aF1516479312.90203
aF1516479312.923678
aF1516479312.945433
aF1516479312.967226
aF1516479312.989063
aF1516479313.010563
aF1516479313.033859
aF1516479313.055139
aF1516479313.076973
aF1516479313.098645
aF1516479313.120493
aF1516479313.143283
aF1516479313.164758
aF1516479313.18669
aF1516479313.210046
aF1516479313.231921
aF1516479313.253923
aF1516479313.275668
aF1516479313.29757
aF1516479313.319455
aF1516479313.341873
aF1516479313.365893
aF1516479313.388271
aF1516479313.411665
aF1516479313.4339
aF1516479313.4548
aF1516479313.478984
aF1516479313.501386
aF1516479313.523653
aF1516479313.546988
aF1516479313.569703
aF1516479313.591474
aF1516479313.615307
aF1516479313.637927
aF1516479313.660579
aF1516479313.683625
aF1516479313.706177
aF1516479313.728761
aF1516479313.751729
aF1516479313.772884
aF1516479313.795096
aF1516479313.81946
aF1516479313.841822
aF1516479313.867419
aF1516479313.888539
aF1516479313.91017
aF1516479313.932622
aF1516479313.956674
aF1516479313.977988
aF1516479314.001153
aF1516479314.023358
aF1516479314.045517
aF1516479314.067619
aF1516479314.089677
aF1516479314.111591
aF1516479314.13433
aF1516479314.159342
aF1516479314.182149
aF1516479314.204894
aF1516479314.229721
aF1516479314.252541
aF1516479314.273859
aF1516479314.297865
aF1516479314.320869
aF1516479314.343256
aF1516479314.369995
aF1516479314.393087
aF1516479314.416392
aF1516479314.439319
aF1516479314.463476
aF1516479314.486951
aF1516479314.509893
aF1516479314.534893
aF1516479314.558177
aF1516479314.581527
aF1516479314.605132
aF1516479314.628349
aF1516479314.65133
aF1516479314.674377
aF1516479314.698566
aF1516479314.722415
aF1516479314.746492
aF1516479314.771682
aF1516479314.795727
aF1516479314.819716
aF1516479314.843723
aF1516479314.871684
aF1516479314.895715
aF1516479314.919771
aF1516479314.945824
aF1516479314.973836
aF1516479314.998163
aF1516479315.019977
aF1516479315.044224
aF1516479315.074504
aF1516479315.097487
aF1516479315.120093
aF1516479315.144537
aF1516479315.172603
aF1516479315.196542
aF1516479315.220832
aF1516479315.24585
aF1516479315.271145
aF1516479315.295045
aF1516479315.319669
aF1516479315.344326
aF1516479315.368896
aF1516479315.392628
aF1516479315.418289
aF1516479315.442821
aF1516479315.465955
aF1516479315.490068
aF1516479315.514465
aF1516479315.538863
aF1516479315.562867
aF1516479315.586664
aF1516479315.610432
aF1516479315.634448
aF1516479315.658644
aF1516479315.681846
aF1516479315.707257
aF1516479315.731802
aF1516479315.759298
aF1516479315.784365
aF1516479315.810328
aF1516479315.834901
aF1516479315.859546
aF1516479315.884846
aF1516479315.909207
aF1516479315.933211
aF1516479315.959953
aF1516479315.985167
aF1516479316.009301
aF1516479316.033418
aF1516479316.058882
aF1516479316.084264
aF1516479316.108553
aF1516479316.132977
aF1516479316.159312
aF1516479316.184206
aF1516479316.208612
aF1516479316.233035
aF1516479316.257407
aF1516479316.283102
aF1516479316.308039
aF1516479316.333095
aF1516479316.358145
aF1516479316.383951
aF1516479316.408238
aF1516479316.436426
aF1516479316.461603
aF1516479316.485511
aF1516479316.510142
aF1516479316.536929
aF1516479316.561057
aF1516479316.586007
aF1516479316.611952
aF1516479316.639465
aF1516479316.665067
aF1516479316.689654
aF1516479316.714886
aF1516479316.7405
aF1516479316.766506
aF1516479316.79252
aF1516479316.815472
aF1516479316.842993
aF1516479316.871003
aF1516479316.897116
aF1516479316.92324
aF1516479316.947535
aF1516479316.976335
aF1516479317.004053
aF1516479317.030534
aF1516479317.055439
aF1516479317.081138
aF1516479317.10945
aF1516479317.136513
aF1516479317.16079
aF1516479317.185758
aF1516479317.210856
as.