(dp0
S'ay'
p1
(lp2
I0
aI0
aI0
aI0
aI0
aI0
aI0
aI0
aI0
aI0
aI0
aI0
aF0.0
aF0.0
aF0.0
aF0.0
aF0.0
aF0.0
aF0.0
aF0.0
aF0.0
aF0.0
aF0.0
aF0.0
aF0.0
aF0.0
aF0.0
aF0.0
aF0.0
aF0.0
aF0.0
aF0.0
aF0.0
aF0.0
aF0.0
aF0.0
aF0.0
aF0.0
aF0.0
aF0.0
aF-1.1943666953740253
aF-1.1943666953740253
aF-1.1943666953740253
aF-1.1943666953740253
aF-1.1943666953740253
aF-6.270425150713633
aF-6.270425150713633
aF-6.270425150713633
aF-6.270425150713633
aF-8.58254620409394
aF-8.58254620409394
aF-8.58254620409394
aF-8.58254620409394
aF-8.58254620409394
aF-10.087291086752664
aF-10.087291086752664
aF-10.087291086752664
aF-10.087291086752664
aF-5.771462748369879
aF-5.771462748369879
aF-5.771462748369879
aF-5.771462748369879
aF-5.771462748369879
aF-4.586918147530179
aF-4.586918147530179
aF-4.586918147530179
aF-4.586918147530179
aF-2.6048194705032195
aF-2.6048194705032195
aF-2.6048194705032195
aF-2.6048194705032195
aF-2.6048194705032195
aF-2.0351379875123192
aF-2.0351379875123192
aF-2.0351379875123192
aF-2.0351379875123192
aF-1.5793928011195992
aF-1.5793928011195992
aF-1.5793928011195992
aF-1.5793928011195992
aF-1.9094151774729482
aF-1.9094151774729482
aF-1.9094151774729482
aF-1.9094151774729482
aF-1.9094151774729482
aF-1.8642335426150494
aF-1.8642335426150494
aF-1.8642335426150494
aF-1.8642335426150494
aF-1.5106381393793182
aF-1.5106381393793182
aF-1.5106381393793182
aF-1.5106381393793182
aF0.0
aF0.0
aF0.0
aF0.0
aF0.0
aF-0.8388068732314289
aF-0.8388068732314289
aF-0.8388068732314289
aF-0.8388068732314289
aF1.1432918037955309
aF1.1432918037955309
aF1.1432918037955309
aF1.1432918037955309
aF-1.4733141801488798
aF-1.4733141801488798
aF-1.4733141801488798
aF-1.4733141801488798
aF-1.4733141801488798
aF0.6855821984959454
aF0.6855821984959454
aF0.6855821984959454
aF0.6855821984959454
aF0.0
aF0.0
aF0.0
aF0.0
aF-0.8152338463490468
aF-0.8152338463490468
aF-0.8152338463490468
aF-0.8152338463490468
aF0.0
aF0.0
aF0.0
aF0.0
aF0.0
aF0.0
aF0.0
aF0.0
aF0.7229061577263837
aF0.7229061577263837
aF0.7229061577263837
aF0.7229061577263837
aF0.0
aF0.0
aF0.0
aF0.0
aF0.0
aF0.0
aF0.0
aF0.0
aF0.0
aF0.306449349470967
aF0.306449349470967
aF0.306449349470967
aF0.306449349470967
aF1.7110088678795659
aF1.7110088678795659
aF1.7110088678795659
aF1.7110088678795659
aF0.0
aF0.0
aF0.0
aF0.0
aF0.0
aF0.0
aF0.0
aF1.1609715739573174
aF1.1609715739573174
aF1.1609715739573174
aF1.1609715739573174
aF0.8034473329078559
aF0.8034473329078559
aF0.8034473329078559
aF0.8034473329078559
aF1.3574134646438347
aF1.3574134646438347
aF1.3574134646438347
aF1.3574134646438347
aF0.43413657841720327
aF0.43413657841720327
aF0.43413657841720327
aF0.43413657841720327
aF0.43413657841720327
aF0.0
aF0.0
aF0.0
aF0.0
aF0.0
aF0.0
aF0.0
aF0.0
aF0.0
aF0.0
aF0.0
aF1.6835070031834534
aF1.6835070031834534
aF1.6835070031834534
aF1.6835070031834534
aF-0.9468499131090135
aF-0.9468499131090135
aF-0.9468499131090135
aF-0.9468499131090135
aF0.0
aF0.0
aF0.0
aF0.0
aF0.26519655242679835
aF0.26519655242679835
aF0.26519655242679835
aF0.26519655242679835
aF0.3496665654220008
aF0.3496665654220008
aF0.3496665654220008
aF0.3496665654220008
aF0.0
aF0.0
aF0.0
aF0.0
aF0.34770214651513565
aF0.34770214651513565
aF0.34770214651513565
aF0.34770214651513565
aF0.7975540761872603
aF0.7975540761872603
aF0.7975540761872603
aF0.7975540761872603
aF1.3790220726193516
aF1.3790220726193516
aF1.3790220726193516
aF1.3790220726193516
aF0.49306914562315846
aF0.49306914562315846
aF0.49306914562315846
aF-0.5166421725055406
aF-0.5166421725055406
aF-0.5166421725055406
aF-0.5166421725055406
aF1.133469709261205
aF1.133469709261205
aF1.133469709261205
aF1.133469709261205
aF-0.862379900113811
aF-0.862379900113811
aF-0.862379900113811
aF-0.862379900113811
aF1.5027804637518574
aF1.5027804637518574
aF1.5027804637518574
aF-3.264864223209918
aF-3.264864223209918
aF-3.264864223209918
aF-3.264864223209918
aF1.508673720472453
aF1.508673720472453
aF1.508673720472453
aF1.508673720472453
aF-1.5715351254921386
aF-1.5715351254921386
aF-1.5715351254921386
aF-4.254931352269965
aF-4.254931352269965
aF-4.254931352269965
aF-4.254931352269965
aF4.520127904696763
aF4.520127904696763
aF4.520127904696763
aF4.520127904696763
aF-0.35555982214259635
aF-0.35555982214259635
aF-0.35555982214259635
aF-0.35555982214259635
aF3.8306168683870876
aF3.8306168683870876
aF3.8306168683870876
aF3.8306168683870876
aF5.718423437884519
aF5.718423437884519
aF5.718423437884519
aF3.6381038155143006
aF3.6381038155143006
aF3.6381038155143006
aF3.6381038155143006
aF9.050077903927853
aF9.050077903927853
aF9.050077903927853
aF9.050077903927853
aF7.673020250215366
aF7.673020250215366
aF7.673020250215366
aF8.12287217988749
aF8.12287217988749
aF8.12287217988749
aF8.12287217988749
aF7.364606481837534
aF7.364606481837534
aF7.364606481837534
aF2.9309130090428384
aF2.9309130090428384
aF2.9309130090428384
aF2.9309130090428384
aF3.6145307886319187
aF3.6145307886319187
aF3.6145307886319187
aF3.6145307886319187
aF3.3552274929257155
aF3.3552274929257155
aF3.3552274929257155
aF3.359156330739446
aF3.359156330739446
aF3.359156330739446
aF3.359156330739446
aF3.190216304749041
aF3.190216304749041
aF3.190216304749041
aF3.190216304749041
aF2.1313945139487127
aF2.1313945139487127
aF2.1313945139487127
aF3.451484019362109
aF3.451484019362109
aF3.451484019362109
aF3.451484019362109
aF1.1216831958200137
aF1.1216831958200137
aF1.1216831958200137
aF0.9350633996678224
aF0.9350633996678224
aF0.9350633996678224
aF0.9350633996678224
aF1.5990369901882509
aF1.5990369901882509
aF1.5990369901882509
aF1.5990369901882509
aF0.20233514740711284
aF0.20233514740711284
aF0.20233514740711284
aF1.712973286786431
aF1.712973286786431
aF1.712973286786431
aF1.712973286786431
aF0.0
aF0.0
aF0.0
aF0.28876957930918046
aF0.28876957930918046
aF0.28876957930918046
aF0.28876957930918046
aF1.7522616649237344
aF1.7522616649237344
aF1.7522616649237344
aF1.0961457500307665
aF1.0961457500307665
aF1.0961457500307665
aF1.874055637149375
aF1.874055637149375
aF1.874055637149375
aF1.874055637149375
aF1.0313199261042159
aF1.0313199261042159
aF1.0313199261042159
aF0.805411751814721
aF0.805411751814721
aF0.805411751814721
aF0.805411751814721
aF0.612898698941934
aF0.612898698941934
aF0.612898698941934
aF0.0
aF0.0
aF0.0
aF0.5736103208046306
aF0.5736103208046306
aF0.5736103208046306
aF0.5736103208046306
aF0.20822840412770835
aF0.20822840412770835
aF0.20822840412770835
aF0.8584510623000806
aF0.8584510623000806
aF0.8584510623000806
aF0.6934398741234061
aF0.6934398741234061
aF0.6934398741234061
aF0.6934398741234061
aF0.24555236335814665
aF0.24555236335814665
aF0.24555236335814665
aF0.24555236335814665
aF-0.21412166084830386
aF-0.21412166084830386
aF-0.21412166084830386
aF-0.5912900909664172
aF-0.5912900909664172
aF-0.5912900909664172
aF-0.8447001299520245
aF-0.8447001299520245
aF-0.8447001299520245
aF-0.8447001299520245
aF1.237583911325059
aF1.237583911325059
aF1.237583911325059
aF0.6364717258243161
aF0.6364717258243161
aF0.6364717258243161
aF0.5028912401574843
aF0.5028912401574843
aF0.5028912401574843
aF0.5028912401574843
aF0.3084137683778322
aF0.3084137683778322
aF0.3084137683778322
aF-0.5971833476870126
aF-0.5971833476870126
aF-0.5971833476870126
aF0.4950335645300236
aF0.4950335645300236
aF0.4950335645300236
aF0.4950335645300236
aF-0.38109726793184356
aF-0.38109726793184356
aF-0.38109726793184356
aF0.6462938203586419
aF0.6462938203586419
aF0.6462938203586419
aF0.6462938203586419
aF0.0
aF0.0
aF0.0
aF0.9566720076433393
aF0.9566720076433393
aF0.9566720076433393
aF0.0
aF0.0
aF0.0
aF0.0
aF-0.2062639852208432
aF-0.2062639852208432
aF-0.2062639852208432
aF-1.4143816129429247
aF-1.4143816129429247
aF-1.4143816129429247
aF0.45574518639272016
aF0.45574518639272016
aF0.45574518639272016
aF0.2573388767993377
aF0.2573388767993377
aF0.2573388767993377
aF0.2573388767993377
aF0.47931821327510227
aF0.47931821327510227
aF0.47931821327510227
aF0.9370278185746875
aF0.9370278185746875
aF0.9370278185746875
aF0.9370278185746875
aF0.0
aF0.0
aF0.0
aF0.261267714613068
aF0.261267714613068
aF0.261267714613068
aF1.0607862097071934
aF1.0607862097071934
aF1.0607862097071934
aF1.0607862097071934
aF1.325982762133992
aF1.325982762133992
aF1.325982762133992
aF4.311899500569055
aF4.311899500569055
aF4.311899500569055
aF2.4417727012334103
aF2.4417727012334103
aF2.4417727012334103
aF0.5971833476870126
aF0.5971833476870126
aF0.5971833476870126
aF2.732506699449456
aF2.732506699449456
aF2.732506699449456
aF1.1668648306779128
aF1.1668648306779128
aF1.1668648306779128
aF1.1668648306779128
aF0.601112185500743
aF0.601112185500743
aF0.601112185500743
aF0.4969979834368888
aF0.4969979834368888
aF0.4969979834368888
aF-0.5421796182947878
aF-0.5421796182947878
aF-0.5421796182947878
aF-0.5421796182947878
aF-0.3535954032357312
aF-0.3535954032357312
aF-0.3535954032357312
aF1.5793928011195992
aF1.5793928011195992
aF1.5793928011195992
aF3.2962949257197605
aF3.2962949257197605
aF3.2962949257197605
aF1.8858421505905663
aF1.8858421505905663
aF1.8858421505905663
aF1.8858421505905663
aF2.5262427142286126
asS'ax'
p3
(lp4
I0
aI0
aI0
aI0
aI0
aI0
aI0
aI0
aI0
aI0
aI0
aI0
aI0
aI0
aI0
aI0
aI0
aI0
aI0
aI0
aI0
aI0
aI0
aI0
aI0
aI0
aI0
aI0
aI0
aI0
aI0
aI0
aI0
aI0
aI0
aI0
aI0
aI0
aI0
aI0
aI0
aI0
aI0
aI0
aI0
aI0
aI0
aI0
aI0
aI0
aI0
aI0
aI0
aI0
aI0
aI0
aI0
aI0
aI0
aI0
aI0
aI0
aI0
aI0
aI0
aI0
aI0
aI0
aI0
aI0
aI0
aI0
aI0
aI0
aI0
aI0
aI0
aI0
aI0
aI0
aI0
aI0
aI0
aI0
aI0
aI0
aI0
aI0
aI0
aI0
aI0
aI0
aI0
aI0
aI0
aI0
aI0
aI0
aI0
aI0
aI0
aI0
aI0
aI0
aI0
aI0
aI0
aI0
aI0
aI0
aI0
aI0
aI0
aI0
aI0
aI0
aI0
aI0
aI0
aI0
aI0
aI0
aI0
aI0
aI0
aI0
aI0
aI0
aI0
aI0
aI0
aI0
aI0
aI0
aI0
aI0
aI0
aI0
aI0
aI0
aI0
aI0
aI0
aI0
aI0
aI0
aI0
aI0
aI0
aI0
aI0
aI0
aI0
aI0
aI0
aI0
aI0
aI0
aI0
aI0
aI0
aI0
aI0
aI0
aI0
aI0
aI0
aI0
aI0
aI0
aI0
aI0
aI0
aI0
aI0
aI0
aI0
aI0
aI0
aI0
aI0
aI0
aI0
aI0
aI0
aI0
aI0
aI0
aI0
aI0
aI0
aI0
aI0
aI0
aI0
aI0
aI0
aI0
aI0
aI0
aI0
aI0
aI0
aI0
aI0
aI0
aI0
aI0
aI0
aI0
aI0
aI0
aI0
aI0
aI0
aI0
aI0
aI0
aI0
aI0
aI0
aI0
aI0
aI0
aI0
aI0
aI0
aI0
aI0
aI0
aI0
aI0
aI0
aI0
aI0
aI0
aI0
aI0
aI0
aI0
aI0
aI0
aI0
aI0
aI0
aI0
aI0
aI0
aI0
aI0
aI0
aI0
aI0
aI0
aI0
aI0
aI0
aI0
aI0
aI0
aI0
aI0
aI0
aI0
aI0
aI0
aI0
aI0
aI0
aI0
aI0
aI0
aI0
aI0
aI0
aI0
aI0
aI0
aI0
aI0
aI0
aI0
aI0
aI0
aI0
aI0
aI0
aI0
aI0
aI0
aI0
aI0
aI0
aI0
aI0
aI0
aI0
aI0
aI0
aI0
aI0
aI0
aI0
aI0
aI0
aI0
aI0
aI0
aI0
aI0
aI0
aI0
aI0
aI0
aI0
aI0
aI0
aI0
aI0
aI0
aI0
aI0
aI0
aI0
aI0
aI0
aI0
aI0
aI0
aI0
aI0
aI0
aI0
aI0
aI0
aI0
aI0
aI0
aI0
aI0
aI0
aI0
aI0
aI0
aI0
aI0
aI0
aI0
aI0
aI0
aI0
aI0
aI0
aI0
aI0
aI0
aI0
aI0
aI0
aI0
aI0
aI0
aI0
aI0
aI0
aI0
aI0
aI0
aI0
aI0
aI0
aI0
aI0
aI0
aI0
aI0
aI0
aI0
aI0
aI0
aI0
aI0
aI0
aI0
aI0
aI0
aI0
aI0
aI0
aI0
aI0
aI0
aI0
aI0
aI0
aI0
aI0
aI0
aI0
aI0
aI0
aI0
aI0
aI0
aI0
aI0
aI0
aI0
aI0
aI0
aI0
aI0
aI0
aI0
aI0
aI0
aI0
aI0
aI0
aI0
aI0
aI0
aI0
aI0
aI0
aI0
aI0
aI0
aI0
aI0
aI0
aI0
aI0
aI0
aI0
aI0
aI0
aI0
aI0
aI0
aI0
aI0
aI0
aI0
aI0
aI0
aI0
aI0
aI0
aI0
aI0
aI0
aI0
aI0
aI0
aI0
aI0
aI0
aI0
aI0
aI0
aI0
aI0
aI0
aI0
aI0
aI0
aI0
aI0
aI0
aI0
aI0
aI0
aI0
aI0
aI0
aI0
aI0
aI0
aI0
aI0
aI0
aI0
aI0
aI0
aI0
aI0
aI0
aI0
aI0
aI0
aI0
aI0
aI0
aI0
aI0
aI0
aI0
aI0
aI0
aI0
asS'time'
p5
(lp6
F1516483421.967369
aF1516483421.988383
aF1516483422.009327
aF1516483422.03022
aF1516483422.051193
aF1516483422.072208
aF1516483422.093082
aF1516483422.114188
aF1516483422.135274
aF1516483422.156344
aF1516483422.177372
aF1516483422.19849
aF1516483422.220616
aF1516483422.241763
aF1516483422.262601
aF1516483422.283694
aF1516483422.304982
aF1516483422.326815
aF1516483422.348038
aF1516483422.369378
aF1516483422.390592
aF1516483422.412046
aF1516483422.433674
aF1516483422.45524
aF1516483422.476832
aF1516483422.499141
aF1516483422.520807
aF1516483422.542106
aF1516483422.564333
aF1516483422.585968
aF1516483422.608021
aF1516483422.629885
aF1516483422.651149
aF1516483422.67391
aF1516483422.695443
aF1516483422.717367
aF1516483422.739179
aF1516483422.760833
aF1516483422.78237
aF1516483422.80613
aF1516483422.827731
aF1516483422.849673
aF1516483422.872865
aF1516483422.894237
aF1516483422.915601
aF1516483422.937671
aF1516483422.959596
aF1516483422.98188
aF1516483423.003247
aF1516483423.024671
aF1516483423.046905
aF1516483423.068999
aF1516483423.090903
aF1516483423.113163
aF1516483423.135507
aF1516483423.157457
aF1516483423.181416
aF1516483423.203476
aF1516483423.226308
aF1516483423.249916
aF1516483423.271742
aF1516483423.29402
aF1516483423.316566
aF1516483423.338538
aF1516483423.361201
aF1516483423.385068
aF1516483423.407387
aF1516483423.431328
aF1516483423.454237
aF1516483423.477013
aF1516483423.498992
aF1516483423.522141
aF1516483423.547402
aF1516483423.568743
aF1516483423.591252
aF1516483423.613918
aF1516483423.635222
aF1516483423.659311
aF1516483423.68171
aF1516483423.704426
aF1516483423.728019
aF1516483423.750753
aF1516483423.772016
aF1516483423.794925
aF1516483423.817823
aF1516483423.839546
aF1516483423.863728
aF1516483423.887121
aF1516483423.910346
aF1516483423.934937
aF1516483423.95795
aF1516483423.980769
aF1516483424.00431
aF1516483424.027548
aF1516483424.050676
aF1516483424.073364
aF1516483424.097344
aF1516483424.120473
aF1516483424.143175
aF1516483424.166355
aF1516483424.189639
aF1516483424.213127
aF1516483424.23607
aF1516483424.259681
aF1516483424.282939
aF1516483424.30612
aF1516483424.329819
aF1516483424.353099
aF1516483424.376533
aF1516483424.399094
aF1516483424.422087
aF1516483424.450326
aF1516483424.47517
aF1516483424.498862
aF1516483424.522563
aF1516483424.548951
aF1516483424.571862
aF1516483424.595316
aF1516483424.618322
aF1516483424.644121
aF1516483424.667198
aF1516483424.690121
aF1516483424.71477
aF1516483424.738849
aF1516483424.762323
aF1516483424.787639
aF1516483424.811973
aF1516483424.835749
aF1516483424.85912
aF1516483424.882354
aF1516483424.906609
aF1516483424.930463
aF1516483424.9564
aF1516483424.981999
aF1516483425.006012
aF1516483425.029513
aF1516483425.053063
aF1516483425.076093
aF1516483425.100375
aF1516483425.124838
aF1516483425.152434
aF1516483425.176406
aF1516483425.199916
aF1516483425.224573
aF1516483425.252451
aF1516483425.275035
aF1516483425.300374
aF1516483425.324315
aF1516483425.353687
aF1516483425.376674
aF1516483425.401181
aF1516483425.427385
aF1516483425.454114
aF1516483425.478042
aF1516483425.503204
aF1516483425.52961
aF1516483425.558942
aF1516483425.583605
aF1516483425.608218
aF1516483425.633391
aF1516483425.659422
aF1516483425.684762
aF1516483425.709585
aF1516483425.734619
aF1516483425.75899
aF1516483425.782678
aF1516483425.807437
aF1516483425.833674
aF1516483425.858408
aF1516483425.881597
aF1516483425.906729
aF1516483425.931646
aF1516483425.956984
aF1516483425.981376
aF1516483426.005655
aF1516483426.030025
aF1516483426.056683
aF1516483426.081086
aF1516483426.106285
aF1516483426.131989
aF1516483426.158254
aF1516483426.182427
aF1516483426.21048
aF1516483426.236064
aF1516483426.262516
aF1516483426.285693
aF1516483426.311013
aF1516483426.339189
aF1516483426.362943
aF1516483426.387473
aF1516483426.412569
aF1516483426.440384
aF1516483426.464241
aF1516483426.488965
aF1516483426.513877
aF1516483426.541574
aF1516483426.565194
aF1516483426.590412
aF1516483426.615082
aF1516483426.640075
aF1516483426.664856
aF1516483426.690682
aF1516483426.714944
aF1516483426.742502
aF1516483426.766329
aF1516483426.7914
aF1516483426.815989
aF1516483426.843376
aF1516483426.867772
aF1516483426.892818
aF1516483426.916875
aF1516483426.941288
aF1516483426.968387
aF1516483426.994813
aF1516483427.021784
aF1516483427.049048
aF1516483427.07501
aF1516483427.101068
aF1516483427.126525
aF1516483427.15417
aF1516483427.180283
aF1516483427.205608
aF1516483427.231691
aF1516483427.260424
aF1516483427.287765
aF1516483427.315081
aF1516483427.341196
aF1516483427.365387
aF1516483427.389987
aF1516483427.420458
aF1516483427.447386
aF1516483427.473482
aF1516483427.498901
aF1516483427.5245
aF1516483427.555955
aF1516483427.581228
aF1516483427.607277
aF1516483427.634954
aF1516483427.659691
aF1516483427.686998
aF1516483427.713775
aF1516483427.739857
aF1516483427.766611
aF1516483427.792046
aF1516483427.819308
aF1516483427.846846
aF1516483427.871764
aF1516483427.899578
aF1516483427.924897
aF1516483427.957118
aF1516483427.986333
aF1516483428.012558
aF1516483428.039203
aF1516483428.064564
aF1516483428.090228
aF1516483428.117923
aF1516483428.144924
aF1516483428.169077
aF1516483428.194704
aF1516483428.221922
aF1516483428.24846
aF1516483428.276074
aF1516483428.302208
aF1516483428.3283
aF1516483428.354062
aF1516483428.380923
aF1516483428.408882
aF1516483428.433036
aF1516483428.461034
aF1516483428.489357
aF1516483428.514657
aF1516483428.542233
aF1516483428.567581
aF1516483428.594103
aF1516483428.621241
aF1516483428.648377
aF1516483428.676864
aF1516483428.701784
aF1516483428.730838
aF1516483428.764585
aF1516483428.794948
aF1516483428.82479
aF1516483428.849888
aF1516483428.877275
aF1516483428.902452
aF1516483428.927776
aF1516483428.959037
aF1516483428.988489
aF1516483429.01689
aF1516483429.041896
aF1516483429.070339
aF1516483429.097413
aF1516483429.123379
aF1516483429.151548
aF1516483429.176032
aF1516483429.203557
aF1516483429.229881
aF1516483429.26007
aF1516483429.288728
aF1516483429.31866
aF1516483429.343116
aF1516483429.369387
aF1516483429.39581
aF1516483429.424778
aF1516483429.452115
aF1516483429.480077
aF1516483429.507048
aF1516483429.533687
aF1516483429.564778
aF1516483429.593153
aF1516483429.620298
aF1516483429.649574
aF1516483429.674863
aF1516483429.698597
aF1516483429.729206
aF1516483429.760383
aF1516483429.789431
aF1516483429.816051
aF1516483429.842413
aF1516483429.869997
aF1516483429.898894
aF1516483429.9291
aF1516483429.954746
aF1516483429.98439
aF1516483430.01224
aF1516483430.038855
aF1516483430.071989
aF1516483430.099944
aF1516483430.129747
aF1516483430.157729
aF1516483430.184305
aF1516483430.211564
aF1516483430.239019
aF1516483430.267609
aF1516483430.300908
aF1516483430.328737
aF1516483430.358611
aF1516483430.386077
aF1516483430.413575
aF1516483430.440881
aF1516483430.470706
aF1516483430.502141
aF1516483430.534356
aF1516483430.56584
aF1516483430.595006
aF1516483430.622611
aF1516483430.65253
aF1516483430.678764
aF1516483430.705561
aF1516483430.73522
aF1516483430.766707
aF1516483430.796254
aF1516483430.825508
aF1516483430.852776
aF1516483430.882203
aF1516483430.908824
aF1516483430.93789
aF1516483430.970684
aF1516483431.003334
aF1516483431.030814
aF1516483431.063064
aF1516483431.094137
aF1516483431.124895
aF1516483431.153087
aF1516483431.181534
aF1516483431.207913
aF1516483431.234874
aF1516483431.267994
aF1516483431.298584
aF1516483431.328884
aF1516483431.358949
aF1516483431.387211
aF1516483431.415752
aF1516483431.44524
aF1516483431.476574
aF1516483431.503252
aF1516483431.531018
aF1516483431.563218
aF1516483431.590918
aF1516483431.614754
aF1516483431.639957
aF1516483431.671705
aF1516483431.700464
aF1516483431.730381
aF1516483431.762028
aF1516483431.791418
aF1516483431.821058
aF1516483431.847602
aF1516483431.8776
aF1516483431.906431
aF1516483431.938017
aF1516483431.971579
aF1516483432.004533
aF1516483432.035584
aF1516483432.068493
aF1516483432.099886
aF1516483432.128446
aF1516483432.158888
aF1516483432.18526
aF1516483432.213823
aF1516483432.244187
aF1516483432.274566
aF1516483432.304896
aF1516483432.332401
aF1516483432.363763
aF1516483432.393251
aF1516483432.422695
aF1516483432.451268
aF1516483432.477666
aF1516483432.505455
aF1516483432.536641
aF1516483432.564636
aF1516483432.595188
aF1516483432.623003
aF1516483432.650655
aF1516483432.679278
aF1516483432.708314
aF1516483432.740629
aF1516483432.775353
aF1516483432.807345
aF1516483432.837853
aF1516483432.871544
aF1516483432.904621
aF1516483432.932467
aF1516483432.963122
aF1516483432.989466
aF1516483433.020573
aF1516483433.048277
aF1516483433.08009
aF1516483433.109041
aF1516483433.13667
aF1516483433.170584
aF1516483433.201739
aF1516483433.233552
aF1516483433.263225
aF1516483433.293173
aF1516483433.319839
aF1516483433.349804
aF1516483433.380044
aF1516483433.411787
aF1516483433.441194
aF1516483433.471162
aF1516483433.501169
aF1516483433.529944
aF1516483433.561052
aF1516483433.590863
aF1516483433.618388
aF1516483433.650037
aF1516483433.680761
aF1516483433.708074
aF1516483433.736326
aF1516483433.771923
aF1516483433.802448
aF1516483433.833671
aF1516483433.861116
aF1516483433.892962
aF1516483433.920085
aF1516483433.951724
aF1516483433.982754
aF1516483434.015063
aF1516483434.043256
aF1516483434.077365
aF1516483434.107247
aF1516483434.14127
aF1516483434.174678
aF1516483434.203793
aF1516483434.237067
aF1516483434.266803
aF1516483434.298834
aF1516483434.33175
aF1516483434.359783
aF1516483434.391219
aF1516483434.423394
aF1516483434.453685
aF1516483434.484766
aF1516483434.512571
aF1516483434.544294
aF1516483434.580813
aF1516483434.609598
aF1516483434.640576
aF1516483434.670077
aF1516483434.700036
aF1516483434.730583
aF1516483434.760002
aF1516483434.791943
aF1516483434.822105
aF1516483434.852216
aF1516483434.882429
aF1516483434.912771
aF1516483434.9443
aF1516483434.971481
aF1516483435.003691
aF1516483435.03242
aF1516483435.065029
aF1516483435.095894
aF1516483435.129274
aF1516483435.158947
aF1516483435.189769
aF1516483435.2195
aF1516483435.249765
aF1516483435.282918
as.