(dp0
S'ay'
p1
(lp2
I0
aI0
aI0
aI0
aI0
aI0
aI0
aI0
aI0
aI0
aI0
aI0
aF0.0
aF0.0
aF0.0
aF0.0
aF0.0
aF0.0
aF0.0
aF0.0
aF0.0
aF0.0
aF0.0
aF0.0
aF0.0
aF0.0
aF0.0
aF0.0
aF0.0
aF0.0
aF0.0
aF0.0
aF0.0
aF0.0
aF0.0
aF0.0
aF0.0
aF0.0
aF0.0
aF0.0
aF0.0
aF0.0
aF0.0
aF0.0
aF0.0
aF0.0
aF0.0
aF0.0
aF0.0
aF0.0
aF0.0
aF0.0
aF0.0
aF0.0
aF0.0
aF-2.913233238881052
aF-2.913233238881052
aF-2.913233238881052
aF-2.913233238881052
aF-2.913233238881052
aF-3.824723611666492
aF-3.824723611666492
aF-3.824723611666492
aF-3.824723611666492
aF-4.19992762287774
aF-4.19992762287774
aF-4.19992762287774
aF-4.19992762287774
aF-4.19992762287774
aF-5.907007652943576
aF-5.907007652943576
aF-5.907007652943576
aF-5.907007652943576
aF-5.907007652943576
aF-6.254709799458711
aF-6.254709799458711
aF-6.254709799458711
aF-4.748000497893123
aF-4.748000497893123
aF-4.748000497893123
aF-4.748000497893123
aF-4.748000497893123
aF-2.981987900621333
aF-2.981987900621333
aF-2.981987900621333
aF-2.981987900621333
aF-3.143070250984277
aF-3.143070250984277
aF-3.143070250984277
aF-3.143070250984277
aF-2.097999392532005
aF-2.097999392532005
aF-2.097999392532005
aF-2.097999392532005
aF-2.097999392532005
aF-2.2158645269439154
aF-2.2158645269439154
aF-2.2158645269439154
aF-2.2158645269439154
aF-0.34770214651513565
aF-0.34770214651513565
aF-0.34770214651513565
aF-0.34770214651513565
aF-0.34770214651513565
aF1.0843592365895756
aF1.0843592365895756
aF1.0843592365895756
aF1.0843592365895756
aF0.0
aF0.0
aF0.0
aF0.0
aF1.13543412816807
aF1.13543412816807
aF1.13543412816807
aF1.13543412816807
aF0.38109726793184356
aF0.38109726793184356
aF0.38109726793184356
aF0.38109726793184356
aF0.38109726793184356
aF-0.8820240891824628
aF-0.8820240891824628
aF-0.8820240891824628
aF-0.8820240891824628
aF-0.6345073069174509
aF-0.6345073069174509
aF-0.6345073069174509
aF-0.6345073069174509
aF-0.8073761707215862
aF-0.8073761707215862
aF-0.8073761707215862
aF-0.8073761707215862
aF0.0
aF0.0
aF0.0
aF0.0
aF-7.898928424504861
aF-7.898928424504861
aF-7.898928424504861
aF-7.898928424504861
aF-8.930248350609077
aF-8.930248350609077
aF-8.930248350609077
aF-8.930248350609077
aF-8.930248350609077
aF-6.765458715243656
aF-6.765458715243656
aF-6.765458715243656
aF-6.765458715243656
aF-7.396037184347377
aF-7.396037184347377
aF-7.396037184347377
aF-3.8895494355930427
aF-3.8895494355930427
aF-3.8895494355930427
aF-3.8895494355930427
aF-3.451484019362109
aF-3.451484019362109
aF-3.451484019362109
aF-3.451484019362109
aF-1.5577841931440823
aF-1.5577841931440823
aF-1.5577841931440823
aF-1.5577841931440823
aF-5.594665046752013
aF-5.594665046752013
aF-5.594665046752013
aF-5.594665046752013
aF0.4302077406034729
aF0.4302077406034729
aF0.4302077406034729
aF0.4302077406034729
aF1.6952935166246443
aF1.6952935166246443
aF1.6952935166246443
aF1.6952935166246443
aF7.600336750661355
aF7.600336750661355
aF7.600336750661355
aF7.600336750661355
aF14.70367551788582
aF14.70367551788582
aF14.70367551788582
aF14.70367551788582
aF15.939295010304015
aF15.939295010304015
aF15.939295010304015
aF15.939295010304015
aF1.3220539243202616
aF1.3220539243202616
aF1.3220539243202616
aF1.3220539243202616
aF11.273800106499229
aF11.273800106499229
aF11.273800106499229
aF11.273800106499229
aF14.41097710076291
aF14.41097710076291
aF14.41097710076291
aF14.41097710076291
aF8.197520098348367
aF8.197520098348367
aF8.197520098348367
aF8.197520098348367
aF10.96342191921453
aF10.96342191921453
aF10.96342191921453
aF10.96342191921453
aF12.580138679564568
aF12.580138679564568
aF12.580138679564568
aF12.580138679564568
aF10.446779746708991
aF10.446779746708991
aF10.446779746708991
aF10.446779746708991
aF8.319314070574007
aF8.319314070574007
aF8.319314070574007
aF3.585064505028941
aF3.585064505028941
aF3.585064505028941
aF3.585064505028941
aF5.176243819589732
aF5.176243819589732
aF5.176243819589732
aF5.176243819589732
aF4.205820879598336
aF4.205820879598336
aF4.205820879598336
aF4.205820879598336
aF4.867830051211899
aF4.867830051211899
aF4.867830051211899
aF4.867830051211899
aF5.415902926227282
aF5.415902926227282
aF5.415902926227282
aF2.583210862527703
aF2.583210862527703
aF2.583210862527703
aF2.583210862527703
aF-1.6402897872324196
aF-1.6402897872324196
aF-1.6402897872324196
aF-1.6402897872324196
aF-1.2513348436731153
aF-1.2513348436731153
aF-1.2513348436731153
aF-1.2513348436731153
aF-4.673352579432247
aF-4.673352579432247
aF-4.673352579432247
aF-6.563123567836543
aF-6.563123567836543
aF-6.563123567836543
aF-6.563123567836543
aF-2.351409431517612
aF-2.351409431517612
aF-2.351409431517612
aF-2.351409431517612
aF-2.3553382693313427
aF-2.3553382693313427
aF-2.3553382693313427
aF-1.748332827110004
aF-1.748332827110004
aF-1.748332827110004
aF-1.748332827110004
aF-2.1647896353654206
aF-2.1647896353654206
aF-2.1647896353654206
aF-2.1647896353654206
aF-4.168496920367898
aF-4.168496920367898
aF-4.168496920367898
aF-9.073650930810235
aF-9.073650930810235
aF-9.073650930810235
aF-9.073650930810235
aF-6.009157436100565
aF-6.009157436100565
aF-6.009157436100565
aF-6.009157436100565
aF-5.062307522991551
aF-5.062307522991551
aF-5.062307522991551
aF-5.062307522991551
aF-3.773648720087998
aF-3.773648720087998
aF-3.773648720087998
aF-3.679356612558469
aF-3.679356612558469
aF-3.679356612558469
aF-4.535843255951685
aF-4.535843255951685
aF-4.535843255951685
aF-4.535843255951685
aF-4.25689577117683
aF-4.25689577117683
aF-4.25689577117683
aF-4.137066217858054
aF-4.137066217858054
aF-4.137066217858054
aF-4.137066217858054
aF-5.523945966104867
aF-5.523945966104867
aF-5.523945966104867
aF-3.695071963813391
aF-3.695071963813391
aF-3.695071963813391
aF-3.695071963813391
aF-1.997814028281881
aF-1.997814028281881
aF-1.997814028281881
aF-1.997814028281881
aF-2.589104119248298
aF-2.589104119248298
aF-2.589104119248298
aF-1.9329882043553304
aF-1.9329882043553304
aF-1.9329882043553304
aF-1.9329882043553304
aF-1.565641868771543
aF-1.565641868771543
aF-1.565641868771543
aF-1.565641868771543
aF-1.0804303987758452
aF-1.0804303987758452
aF-1.0804303987758452
aF-0.7366570900744399
aF-0.7366570900744399
aF-0.7366570900744399
aF-0.7366570900744399
aF3.0782444270577263
aF3.0782444270577263
aF3.0782444270577263
aF3.3296900471364683
aF3.3296900471364683
aF3.3296900471364683
aF3.3296900471364683
aF1.8485181913601278
aF1.8485181913601278
aF1.8485181913601278
aF1.8426249346395325
aF1.8426249346395325
aF1.8426249346395325
aF1.8426249346395325
aF2.088177297997679
aF2.088177297997679
aF2.088177297997679
aF3.7913284902497844
aF3.7913284902497844
aF3.7913284902497844
aF3.6714989369310085
aF3.6714989369310085
aF3.6714989369310085
aF3.6714989369310085
aF4.861936794491304
aF4.861936794491304
aF4.861936794491304
aF4.093849001907021
aF4.093849001907021
aF4.093849001907021
aF8.910604161540425
aF8.910604161540425
aF8.910604161540425
aF8.910604161540425
aF5.541625736266654
aF5.541625736266654
aF5.541625736266654
aF6.993331308440016
aF6.993331308440016
aF6.993331308440016
aF6.993331308440016
aF7.382286251999321
aF7.382286251999321
aF7.382286251999321
aF2.61267714613068
aF2.61267714613068
aF2.61267714613068
aF2.420164093257893
aF2.420164093257893
aF2.420164093257893
aF2.420164093257893
aF3.0369916300135578
aF3.0369916300135578
aF3.0369916300135578
aF2.7501864696112426
aF2.7501864696112426
aF2.7501864696112426
aF2.1353233517624433
aF2.1353233517624433
aF2.1353233517624433
aF2.1353233517624433
aF1.4379546398253067
aF1.4379546398253067
aF1.4379546398253067
aF2.518385038601152
aF2.518385038601152
aF2.518385038601152
aF2.518385038601152
aF1.270979032741767
aF1.270979032741767
aF1.270979032741767
aF0.8780952513687323
aF0.8780952513687323
aF0.8780952513687323
aF1.3967018427811382
aF1.3967018427811382
aF1.3967018427811382
aF1.3967018427811382
aF0.976316196711991
aF0.976316196711991
aF0.976316196711991
aF0.5205710103192709
aF0.5205710103192709
aF0.5205710103192709
aF0.3457377276082705
aF0.3457377276082705
aF0.3457377276082705
aF0.3457377276082705
aF0.7346926711675748
aF0.7346926711675748
aF0.7346926711675748
aF0.0
aF0.0
aF0.0
aF0.5598593884565743
aF0.5598593884565743
aF0.5598593884565743
aF0.5598593884565743
aF0.7366570900744399
aF0.7366570900744399
aF0.7366570900744399
aF1.2611569382074412
aF1.2611569382074412
aF1.2611569382074412
aF3.3080814391609517
aF3.3080814391609517
aF3.3080814391609517
aF3.3080814391609517
aF2.050853338767241
aF2.050853338767241
aF2.050853338767241
aF1.0391776017316765
aF1.0391776017316765
aF1.0391776017316765
aF1.1256120336337443
aF1.1256120336337443
aF1.1256120336337443
aF0.40663471372109083
aF0.40663471372109083
aF0.40663471372109083
aF1.123647614726879
aF1.123647614726879
aF1.123647614726879
aF0.9154192105991706
aF0.9154192105991706
aF0.9154192105991706
aF0.9154192105991706
aF4.186176690529684
aF4.186176690529684
aF4.186176690529684
aF1.2906232218104188
aF1.2906232218104188
aF1.2906232218104188
aF2.3101566344734437
aF2.3101566344734437
aF2.3101566344734437
aF-2.993774414062524
aF-2.993774414062524
aF-2.993774414062524
aF-5.893256720595519
aF-5.893256720595519
aF-5.893256720595519
aF-5.893256720595519
aF-0.24358794445128146
aF-0.24358794445128146
aF-0.24358794445128146
aF0.2416235255444163
aF0.2416235255444163
aF0.2416235255444163
aF-1.0332843450110811
aF-1.0332843450110811
aF-1.0332843450110811
aF-1.0332843450110811
aF-0.2553744578924725
aF-0.2553744578924725
aF-0.2553744578924725
aF-4.854079118863843
aF-4.854079118863843
aF-4.854079118863843
aF-1.5401044229822958
aF-1.5401044229822958
aF-1.5401044229822958
aF-4.48083952655946
aF-4.48083952655946
aF-4.48083952655946
aF-3.867940827617526
aF-3.867940827617526
asS'ax'
p3
(lp4
I0
aI0
aI0
aI0
aI0
aI0
aI0
aI0
aI0
aI0
aI0
aI0
aI0
aI0
aI0
aI0
aI0
aI0
aI0
aI0
aI0
aI0
aI0
aI0
aI0
aI0
aI0
aI0
aI0
aI0
aI0
aI0
aI0
aI0
aI0
aI0
aI0
aI0
aI0
aI0
aI0
aI0
aI0
aI0
aI0
aI0
aI0
aI0
aI0
aI0
aI0
aI0
aI0
aI0
aI0
aI0
aI0
aI0
aI0
aI0
aI0
aI0
aI0
aI0
aI0
aI0
aI0
aI0
aI0
aI0
aI0
aI0
aI0
aI0
aI0
aI0
aI0
aI0
aI0
aI0
aI0
aI0
aI0
aI0
aI0
aI0
aI0
aI0
aI0
aI0
aI0
aI0
aI0
aI0
aI0
aI0
aI0
aI0
aI0
aI0
aI0
aI0
aI0
aI0
aI0
aI0
aI0
aI0
aI0
aI0
aI0
aI0
aI0
aI0
aI0
aI0
aI0
aI0
aI0
aI0
aI0
aI0
aI0
aI0
aI0
aI0
aI0
aI0
aI0
aI0
aI0
aI0
aI0
aI0
aI0
aI0
aI0
aI0
aI0
aI0
aI0
aI0
aI0
aI0
aI0
aI0
aI0
aI0
aI0
aI0
aI0
aI0
aI0
aI0
aI0
aI0
aI0
aI0
aI0
aI0
aI0
aI0
aI0
aI0
aI0
aI0
aI0
aI0
aI0
aI0
aI0
aI0
aI0
aI0
aI0
aI0
aI0
aI0
aI0
aI0
aI0
aI0
aI0
aI0
aI0
aI0
aI0
aI0
aI0
aI0
aI0
aI0
aI0
aI0
aI0
aI0
aI0
aI0
aI0
aI0
aI0
aI0
aI0
aI0
aI0
aI0
aI0
aI0
aI0
aI0
aI0
aI0
aI0
aI0
aI0
aI0
aI0
aI0
aI0
aI0
aI0
aI0
aI0
aI0
aI0
aI0
aI0
aI0
aI0
aI0
aI0
aI0
aI0
aI0
aI0
aI0
aI0
aI0
aI0
aI0
aI0
aI0
aI0
aI0
aI0
aI0
aI0
aI0
aI0
aI0
aI0
aI0
aI0
aI0
aI0
aI0
aI0
aI0
aI0
aI0
aI0
aI0
aI0
aI0
aI0
aI0
aI0
aI0
aI0
aI0
aI0
aI0
aI0
aI0
aI0
aI0
aI0
aI0
aI0
aI0
aI0
aI0
aI0
aI0
aI0
aI0
aI0
aI0
aI0
aI0
aI0
aI0
aI0
aI0
aI0
aI0
aI0
aI0
aI0
aI0
aI0
aI0
aI0
aI0
aI0
aI0
aI0
aI0
aI0
aI0
aI0
aI0
aI0
aI0
aI0
aI0
aI0
aI0
aI0
aI0
aI0
aI0
aI0
aI0
aI0
aI0
aI0
aI0
aI0
aI0
aI0
aI0
aI0
aI0
aI0
aI0
aI0
aI0
aI0
aI0
aI0
aI0
aI0
aI0
aI0
aI0
aI0
aI0
aI0
aI0
aI0
aI0
aI0
aI0
aI0
aI0
aI0
aI0
aI0
aI0
aI0
aI0
aI0
aI0
aI0
aI0
aI0
aI0
aI0
aI0
aI0
aI0
aI0
aI0
aI0
aI0
aI0
aI0
aI0
aI0
aI0
aI0
aI0
aI0
aI0
aI0
aI0
aI0
aI0
aI0
aI0
aI0
aI0
aI0
aI0
aI0
aI0
aI0
aI0
aI0
aI0
aI0
aI0
aI0
aI0
aI0
aI0
aI0
aI0
aI0
aI0
aI0
aI0
aI0
aI0
aI0
aI0
aI0
aI0
aI0
aI0
aI0
aI0
aI0
aI0
aI0
aI0
aI0
aI0
aI0
aI0
aI0
aI0
aI0
aI0
aI0
aI0
aI0
aI0
aI0
aI0
aI0
aI0
aI0
aI0
aI0
aI0
aI0
aI0
aI0
aI0
aI0
aI0
aI0
aI0
aI0
aI0
aI0
aI0
aI0
aI0
aI0
aI0
aI0
aI0
aI0
aI0
aI0
aI0
aI0
aI0
aI0
aI0
aI0
aI0
aI0
aI0
aI0
aI0
aI0
aI0
aI0
aI0
aI0
aI0
aI0
aI0
aI0
aI0
aI0
aI0
aI0
aI0
aI0
aI0
aI0
aI0
aI0
aI0
aI0
aI0
asS'time'
p5
(lp6
F1516483440.583274
aF1516483440.604325
aF1516483440.625427
aF1516483440.646161
aF1516483440.667072
aF1516483440.688077
aF1516483440.709188
aF1516483440.730175
aF1516483440.75119
aF1516483440.772082
aF1516483440.793269
aF1516483440.814139
aF1516483440.835776
aF1516483440.856639
aF1516483440.877478
aF1516483440.898654
aF1516483440.919822
aF1516483440.941382
aF1516483440.962733
aF1516483440.984234
aF1516483441.005661
aF1516483441.026861
aF1516483441.047715
aF1516483441.069032
aF1516483441.090148
aF1516483441.111965
aF1516483441.13368
aF1516483441.155349
aF1516483441.177071
aF1516483441.198529
aF1516483441.221453
aF1516483441.243165
aF1516483441.264949
aF1516483441.287433
aF1516483441.30892
aF1516483441.330116
aF1516483441.352442
aF1516483441.374061
aF1516483441.39555
aF1516483441.417779
aF1516483441.43947
aF1516483441.461527
aF1516483441.483483
aF1516483441.505561
aF1516483441.527719
aF1516483441.549534
aF1516483441.571437
aF1516483441.594191
aF1516483441.615982
aF1516483441.638171
aF1516483441.661137
aF1516483441.683105
aF1516483441.705105
aF1516483441.728029
aF1516483441.750064
aF1516483441.772355
aF1516483441.795366
aF1516483441.817181
aF1516483441.839232
aF1516483441.861884
aF1516483441.884318
aF1516483441.907109
aF1516483441.929763
aF1516483441.952054
aF1516483441.975144
aF1516483441.997355
aF1516483442.019246
aF1516483442.042182
aF1516483442.064654
aF1516483442.086457
aF1516483442.109509
aF1516483442.131935
aF1516483442.154499
aF1516483442.177826
aF1516483442.203802
aF1516483442.226446
aF1516483442.248807
aF1516483442.272295
aF1516483442.294939
aF1516483442.317712
aF1516483442.340903
aF1516483442.36366
aF1516483442.38649
aF1516483442.410206
aF1516483442.433045
aF1516483442.456334
aF1516483442.480244
aF1516483442.502773
aF1516483442.525671
aF1516483442.548661
aF1516483442.571935
aF1516483442.595882
aF1516483442.619233
aF1516483442.642698
aF1516483442.665909
aF1516483442.68916
aF1516483442.711709
aF1516483442.734941
aF1516483442.758162
aF1516483442.781554
aF1516483442.80382
aF1516483442.825663
aF1516483442.84806
aF1516483442.869605
aF1516483442.894117
aF1516483442.919479
aF1516483442.941713
aF1516483442.965138
aF1516483442.989337
aF1516483443.012095
aF1516483443.035225
aF1516483443.0589
aF1516483443.082719
aF1516483443.106111
aF1516483443.129965
aF1516483443.153206
aF1516483443.175871
aF1516483443.199112
aF1516483443.224567
aF1516483443.247825
aF1516483443.271324
aF1516483443.297989
aF1516483443.320961
aF1516483443.34391
aF1516483443.368264
aF1516483443.3932
aF1516483443.417387
aF1516483443.441859
aF1516483443.466544
aF1516483443.490504
aF1516483443.513789
aF1516483443.537445
aF1516483443.563866
aF1516483443.588619
aF1516483443.611135
aF1516483443.634911
aF1516483443.660012
aF1516483443.683758
aF1516483443.70759
aF1516483443.732864
aF1516483443.75864
aF1516483443.782792
aF1516483443.807275
aF1516483443.831598
aF1516483443.855949
aF1516483443.87948
aF1516483443.904022
aF1516483443.92806
aF1516483443.950965
aF1516483443.975408
aF1516483444.004711
aF1516483444.02887
aF1516483444.053335
aF1516483444.078202
aF1516483444.103501
aF1516483444.128705
aF1516483444.151974
aF1516483444.176611
aF1516483444.202871
aF1516483444.227906
aF1516483444.25266
aF1516483444.277081
aF1516483444.302883
aF1516483444.327363
aF1516483444.351683
aF1516483444.378063
aF1516483444.403395
aF1516483444.428633
aF1516483444.453041
aF1516483444.479206
aF1516483444.504478
aF1516483444.529618
aF1516483444.554071
aF1516483444.581508
aF1516483444.606549
aF1516483444.631127
aF1516483444.655709
aF1516483444.682996
aF1516483444.706902
aF1516483444.731415
aF1516483444.756595
aF1516483444.781624
aF1516483444.806616
aF1516483444.832481
aF1516483444.856365
aF1516483444.883376
aF1516483444.908664
aF1516483444.932352
aF1516483444.957792
aF1516483444.986029
aF1516483445.010438
aF1516483445.03486
aF1516483445.058945
aF1516483445.084529
aF1516483445.109344
aF1516483445.134177
aF1516483445.15922
aF1516483445.185594
aF1516483445.210044
aF1516483445.234834
aF1516483445.259077
aF1516483445.287516
aF1516483445.31367
aF1516483445.340115
aF1516483445.364809
aF1516483445.389886
aF1516483445.417282
aF1516483445.441836
aF1516483445.467032
aF1516483445.492487
aF1516483445.518763
aF1516483445.545481
aF1516483445.572266
aF1516483445.597121
aF1516483445.624815
aF1516483445.651008
aF1516483445.678333
aF1516483445.706295
aF1516483445.730416
aF1516483445.761709
aF1516483445.790346
aF1516483445.817254
aF1516483445.840803
aF1516483445.866269
aF1516483445.893136
aF1516483445.919648
aF1516483445.944124
aF1516483445.970312
aF1516483445.996301
aF1516483446.021041
aF1516483446.047419
aF1516483446.072774
aF1516483446.098776
aF1516483446.127757
aF1516483446.153592
aF1516483446.179799
aF1516483446.207343
aF1516483446.234095
aF1516483446.260578
aF1516483446.286516
aF1516483446.313651
aF1516483446.337992
aF1516483446.365827
aF1516483446.393085
aF1516483446.41978
aF1516483446.447348
aF1516483446.473288
aF1516483446.498282
aF1516483446.525313
aF1516483446.552656
aF1516483446.577808
aF1516483446.606648
aF1516483446.634823
aF1516483446.66178
aF1516483446.689256
aF1516483446.717234
aF1516483446.742467
aF1516483446.768877
aF1516483446.79662
aF1516483446.822521
aF1516483446.850569
aF1516483446.876025
aF1516483446.902229
aF1516483446.929729
aF1516483446.959047
aF1516483446.985545
aF1516483447.012066
aF1516483447.039131
aF1516483447.066995
aF1516483447.096696
aF1516483447.123807
aF1516483447.150229
aF1516483447.175186
aF1516483447.202153
aF1516483447.23031
aF1516483447.259093
aF1516483447.287432
aF1516483447.31304
aF1516483447.338133
aF1516483447.368387
aF1516483447.39765
aF1516483447.426259
aF1516483447.453378
aF1516483447.479842
aF1516483447.510611
aF1516483447.53782
aF1516483447.564722
aF1516483447.590568
aF1516483447.621405
aF1516483447.649618
aF1516483447.678548
aF1516483447.70872
aF1516483447.738669
aF1516483447.768127
aF1516483447.798363
aF1516483447.825119
aF1516483447.850727
aF1516483447.879196
aF1516483447.908627
aF1516483447.933762
aF1516483447.960683
aF1516483447.988465
aF1516483448.016106
aF1516483448.044952
aF1516483448.071342
aF1516483448.103831
aF1516483448.130012
aF1516483448.158
aF1516483448.187131
aF1516483448.21108
aF1516483448.238735
aF1516483448.267799
aF1516483448.29627
aF1516483448.324728
aF1516483448.350677
aF1516483448.377061
aF1516483448.404427
aF1516483448.435128
aF1516483448.462513
aF1516483448.490232
aF1516483448.519372
aF1516483448.545052
aF1516483448.572237
aF1516483448.601297
aF1516483448.630941
aF1516483448.65782
aF1516483448.687982
aF1516483448.717201
aF1516483448.742714
aF1516483448.772889
aF1516483448.803654
aF1516483448.831374
aF1516483448.861291
aF1516483448.886909
aF1516483448.917005
aF1516483448.94345
aF1516483448.972562
aF1516483448.999255
aF1516483449.027743
aF1516483449.055531
aF1516483449.083385
aF1516483449.112706
aF1516483449.139805
aF1516483449.172617
aF1516483449.203505
aF1516483449.23396
aF1516483449.265462
aF1516483449.296481
aF1516483449.32997
aF1516483449.361164
aF1516483449.389448
aF1516483449.419618
aF1516483449.446789
aF1516483449.476231
aF1516483449.505064
aF1516483449.534583
aF1516483449.564116
aF1516483449.591738
aF1516483449.625918
aF1516483449.653269
aF1516483449.68095
aF1516483449.710624
aF1516483449.7374
aF1516483449.765058
aF1516483449.795943
aF1516483449.824247
aF1516483449.85643
aF1516483449.885
aF1516483449.917906
aF1516483449.945306
aF1516483449.973816
aF1516483450.000953
aF1516483450.029172
aF1516483450.060786
aF1516483450.089195
aF1516483450.122047
aF1516483450.149696
aF1516483450.180006
aF1516483450.207071
aF1516483450.239956
aF1516483450.268564
aF1516483450.299972
aF1516483450.328402
aF1516483450.357501
aF1516483450.387713
aF1516483450.420883
aF1516483450.448824
aF1516483450.478224
aF1516483450.5062
aF1516483450.534765
aF1516483450.565316
aF1516483450.600337
aF1516483450.627285
aF1516483450.659254
aF1516483450.686688
aF1516483450.721147
aF1516483450.750119
aF1516483450.776864
aF1516483450.804548
aF1516483450.834006
aF1516483450.862157
aF1516483450.891851
aF1516483450.924497
aF1516483450.950926
aF1516483450.98236
aF1516483451.013177
aF1516483451.042032
aF1516483451.070035
aF1516483451.097531
aF1516483451.128779
aF1516483451.158534
aF1516483451.190873
aF1516483451.224939
aF1516483451.252246
aF1516483451.283769
aF1516483451.312312
aF1516483451.345756
aF1516483451.373071
aF1516483451.403985
aF1516483451.434579
aF1516483451.465177
aF1516483451.493446
aF1516483451.525799
aF1516483451.553588
aF1516483451.583814
aF1516483451.610192
aF1516483451.643776
aF1516483451.672297
aF1516483451.704681
aF1516483451.733757
aF1516483451.765008
aF1516483451.793443
aF1516483451.825879
aF1516483451.85471
aF1516483451.884744
aF1516483451.911299
aF1516483451.944527
aF1516483451.973068
aF1516483452.003519
aF1516483452.033167
aF1516483452.065015
aF1516483452.096501
aF1516483452.128071
aF1516483452.161583
aF1516483452.193653
aF1516483452.228836
aF1516483452.258575
aF1516483452.291287
aF1516483452.326612
aF1516483452.360425
aF1516483452.390281
aF1516483452.425092
aF1516483452.456988
aF1516483452.485371
aF1516483452.515985
aF1516483452.543436
aF1516483452.573989
aF1516483452.603104
aF1516483452.633227
aF1516483452.662016
aF1516483452.694504
aF1516483452.729169
aF1516483452.762983
aF1516483452.794165
aF1516483452.829076
aF1516483452.857246
aF1516483452.886702
aF1516483452.922564
aF1516483452.955908
aF1516483452.984092
aF1516483453.015138
aF1516483453.043124
aF1516483453.070785
aF1516483453.103295
aF1516483453.133858
aF1516483453.162661
aF1516483453.19417
aF1516483453.228475
aF1516483453.258324
aF1516483453.289938
aF1516483453.318579
aF1516483453.34826
aF1516483453.376362
aF1516483453.407604
aF1516483453.435995
aF1516483453.468907
aF1516483453.498499
aF1516483453.531386
aF1516483453.565055
aF1516483453.595364
aF1516483453.627783
aF1516483453.661
aF1516483453.690649
aF1516483453.72625
aF1516483453.757069
aF1516483453.78647
aF1516483453.81766
aF1516483453.847344
aF1516483453.877304
aF1516483453.90726
aF1516483453.937955
as.