(dp0
S'ay'
p1
(lp2
I0
aI0
aI0
aI0
aI0
aI0
aI0
aI0
aI0
aI0
aI0
aI0
aF0.6364717258243161
aF0.6364717258243161
aF0.6364717258243161
aF0.6364717258243161
aF0.6364717258243161
aF0.6364717258243161
aF0.6364717258243161
aF0.6423649825449116
aF0.6423649825449116
aF0.6423649825449116
aF0.6423649825449116
aF0.6423649825449116
aF0.6423649825449116
aF0.6423649825449116
aF0.6423649825449116
aF0.6423649825449116
aF0.624685212383125
aF0.624685212383125
aF0.624685212383125
aF0.624685212383125
aF0.624685212383125
aF0.6364717258243161
aF0.6364717258243161
aF0.6364717258243161
aF0.6364717258243161
aF0.6364717258243161
aF0.6266496312899902
aF0.6266496312899902
aF0.6266496312899902
aF0.6266496312899902
aF0.6266496312899902
aF0.6266496312899902
aF0.6266496312899902
aF0.6266496312899902
aF0.6266496312899902
aF0.6305784691037206
aF0.6305784691037206
aF0.6305784691037206
aF0.6305784691037206
aF0.6207563745693947
aF0.6207563745693947
aF0.6207563745693947
aF0.6207563745693947
aF0.6207563745693947
aF0.6679024283341589
aF0.6679024283341589
aF0.6679024283341589
aF0.6679024283341589
aF0.6639735905204285
aF0.6639735905204285
aF0.6639735905204285
aF0.6639735905204285
aF0.6639735905204285
aF0.6462938203586419
aF0.6462938203586419
aF0.6462938203586419
aF0.6462938203586419
aF0.6089698611282036
aF0.6089698611282036
aF0.6089698611282036
aF0.6089698611282036
aF0.6089698611282036
aF0.612898698941934
aF0.612898698941934
aF0.612898698941934
aF0.612898698941934
aF0.5048556590643495
aF0.5048556590643495
aF0.5048556590643495
aF0.5048556590643495
aF-4.826577254167731
aF-4.826577254167731
aF-4.826577254167731
aF-4.826577254167731
aF-9.841738723394517
aF-9.841738723394517
aF-9.841738723394517
aF-9.841738723394517
aF-9.841738723394517
aF-9.334918645423302
aF-9.334918645423302
aF-9.334918645423302
aF-9.334918645423302
aF0.5284286859467315
aF0.5284286859467315
aF0.5284286859467315
aF0.5284286859467315
aF-6.906896876537949
aF-6.906896876537949
aF-6.906896876537949
aF-6.906896876537949
aF-5.734138789139441
aF-5.734138789139441
aF-5.734138789139441
aF-5.734138789139441
aF-5.734138789139441
aF-3.3552274929257155
aF-3.3552274929257155
aF-3.3552274929257155
aF-3.3552274929257155
aF-1.441883477639037
aF-1.441883477639037
aF-1.441883477639037
aF-1.441883477639037
aF-1.7895856241541728
aF-1.7895856241541728
aF-1.7895856241541728
aF-1.7895856241541728
aF-1.7895856241541728
aF0.0
aF0.0
aF0.0
aF0.0
aF-0.9664941021776652
aF-0.9664941021776652
aF-0.9664941021776652
aF-0.9134547916923055
aF-0.9134547916923055
aF-0.9134547916923055
aF-0.9134547916923055
aF-0.9134547916923055
aF0.0
aF0.0
aF0.0
aF0.0
aF0.0
aF0.0
aF0.0
aF0.0
aF-0.3791328490249784
aF-0.3791328490249784
aF-0.3791328490249784
aF-0.3791328490249784
aF0.39091936246616943
aF0.39091936246616943
aF0.39091936246616943
aF0.39091936246616943
aF0.0
aF0.0
aF0.0
aF0.0
aF2.168718473179151
aF2.168718473179151
aF2.168718473179151
aF2.168718473179151
aF-0.2868051604023153
aF-0.2868051604023153
aF-0.2868051604023153
aF-0.2868051604023153
aF0.840771292138294
aF0.840771292138294
aF0.840771292138294
aF0.840771292138294
aF0.47735379436823705
aF0.47735379436823705
aF0.47735379436823705
aF0.47735379436823705
aF1.3299115999477222
aF1.3299115999477222
aF1.3299115999477222
aF1.3299115999477222
aF0.6364717258243161
aF0.6364717258243161
aF0.6364717258243161
aF0.6364717258243161
aF-0.6954042930302713
aF-0.6954042930302713
aF-0.6954042930302713
aF-0.6954042930302713
aF1.9231661098210044
aF1.9231661098210044
aF1.9231661098210044
aF1.9231661098210044
aF-0.7523724413293613
aF-0.7523724413293613
aF-0.7523724413293613
aF-0.7523724413293613
aF-0.9154192105991706
aF-0.9154192105991706
aF-0.9154192105991706
aF-0.9154192105991706
aF0.0
aF0.0
aF0.0
aF0.0
aF0.0
aF0.0
aF0.0
aF0.0
aF-0.47931821327510227
aF-0.47931821327510227
aF-0.47931821327510227
aF-0.47931821327510227
aF-0.805411751814721
aF-0.805411751814721
aF-0.805411751814721
aF-0.805411751814721
aF1.2297262356975984
aF1.2297262356975984
aF1.2297262356975984
aF3.0055609275037147
aF3.0055609275037147
aF3.0055609275037147
aF3.0055609275037147
aF3.842403381828279
aF3.842403381828279
aF3.842403381828279
aF3.842403381828279
aF4.634064201294944
aF4.634064201294944
aF4.634064201294944
aF4.634064201294944
aF5.313753143070294
aF5.313753143070294
aF5.313753143070294
aF5.313753143070294
aF3.767755463367402
aF3.767755463367402
aF3.767755463367402
aF5.343219426673271
aF5.343219426673271
aF5.343219426673271
aF5.343219426673271
aF2.074426365649623
aF2.074426365649623
aF2.074426365649623
aF6.995295727346882
aF6.995295727346882
aF6.995295727346882
aF6.995295727346882
aF7.708379790538939
aF7.708379790538939
aF7.708379790538939
aF7.708379790538939
aF7.344962292768883
aF7.344962292768883
aF7.344962292768883
aF7.344962292768883
aF7.879284235436209
aF7.879284235436209
aF7.879284235436209
aF6.822426863542746
aF6.822426863542746
aF6.822426863542746
aF6.822426863542746
aF4.70871211975582
aF4.70871211975582
aF4.70871211975582
aF4.70871211975582
aF3.180394210214715
aF3.180394210214715
aF3.180394210214715
aF2.1412166084830386
aF2.1412166084830386
aF2.1412166084830386
aF2.1412166084830386
aF2.9780590628076022
aF2.9780590628076022
aF2.9780590628076022
aF2.9780590628076022
aF1.6481474628598802
aF1.6481474628598802
aF1.6481474628598802
aF1.6481474628598802
aF0.0
aF0.0
aF0.0
aF0.0
aF0.0
aF0.0
aF0.0
aF1.612787922536307
aF1.612787922536307
aF1.612787922536307
aF1.612787922536307
aF0.5146777535986754
aF0.5146777535986754
aF0.5146777535986754
aF0.5146777535986754
aF0.0
aF0.0
aF0.0
aF0.8525578055794851
aF0.8525578055794851
aF0.8525578055794851
aF0.8525578055794851
aF0.43610099732406843
aF0.43610099732406843
aF0.43610099732406843
aF0.0
aF0.0
aF0.0
aF0.0
aF-0.7012975497508668
aF-0.7012975497508668
aF-0.7012975497508668
aF-0.7012975497508668
aF-0.8073761707215862
aF-0.8073761707215862
aF-0.8073761707215862
aF0.0
aF0.0
aF0.0
aF0.0
aF-0.28876957930918046
aF-0.28876957930918046
aF-0.28876957930918046
aF0.0
aF0.0
aF0.0
aF0.0
aF0.2789474847748546
aF0.2789474847748546
aF0.2789474847748546
aF0.7405859278881702
aF0.7405859278881702
aF0.7405859278881702
aF0.7405859278881702
aF2.8071546179103324
aF2.8071546179103324
aF2.8071546179103324
aF1.076501560962115
aF1.076501560962115
aF1.076501560962115
aF1.076501560962115
aF0.3280579574464839
aF0.3280579574464839
aF0.3280579574464839
aF0.3280579574464839
aF0.9959603857806427
aF0.9959603857806427
aF0.9959603857806427
aF-0.26716097133366357
aF-0.26716097133366357
aF-0.26716097133366357
aF-0.26716097133366357
aF-1.7208309624138916
aF-1.7208309624138916
aF-1.7208309624138916
aF-0.45967402420645054
aF-0.45967402420645054
aF-0.45967402420645054
aF-0.45967402420645054
aF0.261267714613068
aF0.261267714613068
aF0.261267714613068
aF-0.43413657841720327
aF-0.43413657841720327
aF-0.43413657841720327
aF-0.43413657841720327
aF0.23180143101009043
aF0.23180143101009043
aF0.23180143101009043
aF0.249481201171877
aF0.249481201171877
aF0.249481201171877
aF0.29662725493664116
aF0.29662725493664116
aF0.29662725493664116
aF0.29662725493664116
aF0.0
aF0.0
aF0.0
aF-0.24555236335814665
aF-0.24555236335814665
aF-0.24555236335814665
aF0.0
aF0.0
aF0.0
aF0.0
aF0.0
aF0.0
aF0.0
aF0.7838031438392041
aF0.7838031438392041
aF0.7838031438392041
aF0.7838031438392041
aF0.0
aF0.0
aF0.0
aF0.7346926711675748
aF0.7346926711675748
aF0.7346926711675748
aF-0.3752040112112481
aF-0.3752040112112481
aF-0.3752040112112481
aF-0.3752040112112481
aF0.0
aF0.0
aF0.0
aF0.0
aF0.0
aF0.0
aF-0.6954042930302713
aF-0.6954042930302713
aF-0.6954042930302713
aF-0.6954042930302713
aF0.6187919556625295
aF0.6187919556625295
aF0.6187919556625295
aF0.7504080224224962
aF0.7504080224224962
aF0.7504080224224962
aF0.0
aF0.0
aF0.0
aF0.0
aF-0.2926984171229108
aF-0.2926984171229108
aF-0.2926984171229108
aF1.1845446008396994
aF1.1845446008396994
aF1.1845446008396994
aF0.5127133346918102
aF0.5127133346918102
aF0.5127133346918102
aF0.5127133346918102
aF0.8800596702755976
aF0.8800596702755976
aF0.8800596702755976
aF0.9252413051334966
aF0.9252413051334966
aF0.9252413051334966
aF0.8800596702755976
aF0.8800596702755976
aF0.8800596702755976
aF0.5244998481330012
aF0.5244998481330012
aF0.5244998481330012
aF0.5244998481330012
aF0.0
aF0.0
aF0.0
aF0.0
aF0.0
aF0.0
aF0.0
aF0.0
aF0.0
aF0.0
aF0.0
aF0.0
aF0.0
aF-0.39681261918676497
aF-0.39681261918676497
aF-0.39681261918676497
aF-2.6264280784787366
aF-2.6264280784787366
aF-2.6264280784787366
aF-3.1725365345872545
aF-3.1725365345872545
aF-3.1725365345872545
aF-3.1725365345872545
aF-2.4181996743510283
aF-2.4181996743510283
aF-2.4181996743510283
aF-3.594886599563267
aF-3.594886599563267
aF-3.594886599563267
aF-2.4240929310716237
aF-2.4240929310716237
aF-2.4240929310716237
aF-2.4240929310716237
aF-2.8935890498124
aF-2.8935890498124
aF-2.8935890498124
aF-2.2414019727331627
aF-2.2414019727331627
aF-2.2414019727331627
aF-2.2414019727331627
aF-3.663641261303548
aF-3.663641261303548
aF-3.663641261303548
aF-2.6342857541061973
aF-2.6342857541061973
aF-2.6342857541061973
aF-3.0566358190822096
aF-3.0566358190822096
aF-3.0566358190822096
aF-2.4083775798167024
aF-2.4083775798167024
aF-2.4083775798167024
aF-2.4083775798167024
aF-2.4417727012334103
aF-2.4417727012334103
aF-2.4417727012334103
aF-2.145145446296769
aF-2.145145446296769
aF-2.145145446296769
asS'ax'
p3
(lp4
I0
aI0
aI0
aI0
aI0
aI0
aI0
aI0
aI0
aI0
aI0
aI0
aI0
aI0
aI0
aI0
aI0
aI0
aI0
aI0
aI0
aI0
aI0
aI0
aI0
aI0
aI0
aI0
aI0
aI0
aI0
aI0
aI0
aI0
aI0
aI0
aI0
aI0
aI0
aI0
aI0
aI0
aI0
aI0
aI0
aI0
aI0
aI0
aI0
aI0
aI0
aI0
aI0
aI0
aI0
aI0
aI0
aI0
aI0
aI0
aI0
aI0
aI0
aI0
aI0
aI0
aI0
aI0
aI0
aI0
aI0
aI0
aI0
aI0
aI0
aI0
aI0
aI0
aI0
aI0
aI0
aI0
aI0
aI0
aI0
aI0
aI0
aI0
aI0
aI0
aI0
aI0
aI0
aI0
aI0
aI0
aI0
aI0
aI0
aI0
aI0
aI0
aI0
aI0
aI0
aI0
aI0
aI0
aI0
aI0
aI0
aI0
aI0
aI0
aI0
aI0
aI0
aI0
aI0
aI0
aI0
aI0
aI0
aI0
aI0
aI0
aI0
aI0
aI0
aI0
aI0
aI0
aI0
aI0
aI0
aI0
aI0
aI0
aI0
aI0
aI0
aI0
aI0
aI0
aI0
aI0
aI0
aI0
aI0
aI0
aI0
aI0
aI0
aI0
aI0
aI0
aI0
aI0
aI0
aI0
aI0
aI0
aI0
aI0
aI0
aI0
aI0
aI0
aI0
aI0
aI0
aI0
aI0
aI0
aI0
aI0
aI0
aI0
aI0
aI0
aI0
aI0
aI0
aI0
aI0
aI0
aI0
aI0
aI0
aI0
aI0
aI0
aI0
aI0
aI0
aI0
aI0
aI0
aI0
aI0
aI0
aI0
aI0
aI0
aI0
aI0
aI0
aI0
aI0
aI0
aI0
aI0
aI0
aI0
aI0
aI0
aI0
aI0
aI0
aI0
aI0
aI0
aI0
aI0
aI0
aI0
aI0
aI0
aI0
aI0
aI0
aI0
aI0
aI0
aI0
aI0
aI0
aI0
aI0
aI0
aI0
aI0
aI0
aI0
aI0
aI0
aI0
aI0
aI0
aI0
aI0
aI0
aI0
aI0
aI0
aI0
aI0
aI0
aI0
aI0
aI0
aI0
aI0
aI0
aI0
aI0
aI0
aI0
aI0
aI0
aI0
aI0
aI0
aI0
aI0
aI0
aI0
aI0
aI0
aI0
aI0
aI0
aI0
aI0
aI0
aI0
aI0
aI0
aI0
aI0
aI0
aI0
aI0
aI0
aI0
aI0
aI0
aI0
aI0
aI0
aI0
aI0
aI0
aI0
aI0
aI0
aI0
aI0
aI0
aI0
aI0
aI0
aI0
aI0
aI0
aI0
aI0
aI0
aI0
aI0
aI0
aI0
aI0
aI0
aI0
aI0
aI0
aI0
aI0
aI0
aI0
aI0
aI0
aI0
aI0
aI0
aI0
aI0
aI0
aI0
aI0
aI0
aI0
aI0
aI0
aI0
aI0
aI0
aI0
aI0
aI0
aI0
aI0
aI0
aI0
aI0
aI0
aI0
aI0
aI0
aI0
aI0
aI0
aI0
aI0
aI0
aI0
aI0
aI0
aI0
aI0
aI0
aI0
aI0
aI0
aI0
aI0
aI0
aI0
aI0
aI0
aI0
aI0
aI0
aI0
aI0
aI0
aI0
aI0
aI0
aI0
aI0
aI0
aI0
aI0
aI0
aI0
aI0
aI0
aI0
aI0
aI0
aI0
aI0
aI0
aI0
aI0
aI0
aI0
aI0
aI0
aI0
aI0
aI0
aI0
aI0
aI0
aI0
aI0
aI0
aI0
aI0
aI0
aI0
aI0
aI0
aI0
aI0
aI0
aI0
aI0
aI0
aI0
aI0
aI0
aI0
aI0
aI0
aI0
aI0
aI0
aI0
aI0
aI0
aI0
aI0
aI0
aI0
aI0
aI0
aI0
aI0
aI0
aI0
aI0
aI0
aI0
aI0
aI0
aI0
aI0
aI0
aI0
aI0
aI0
aI0
aI0
aI0
aI0
aI0
aI0
aI0
aI0
aI0
aI0
aI0
aI0
aI0
aI0
aI0
aI0
aI0
aI0
aI0
aI0
aI0
aI0
aI0
aI0
aI0
aI0
aI0
aI0
aI0
aI0
aI0
aI0
aI0
aI0
aI0
aI0
asS'time'
p5
(lp6
F1516483400.978609
aF1516483400.999669
aF1516483401.020786
aF1516483401.041723
aF1516483401.063041
aF1516483401.08405
aF1516483401.105144
aF1516483401.126169
aF1516483401.146992
aF1516483401.167805
aF1516483401.188797
aF1516483401.210027
aF1516483401.231089
aF1516483401.251915
aF1516483401.273005
aF1516483401.294467
aF1516483401.315659
aF1516483401.337976
aF1516483401.359258
aF1516483401.380123
aF1516483401.401364
aF1516483401.422813
aF1516483401.443927
aF1516483401.465398
aF1516483401.486676
aF1516483401.508193
aF1516483401.529755
aF1516483401.550896
aF1516483401.573287
aF1516483401.595144
aF1516483401.616327
aF1516483401.638403
aF1516483401.660292
aF1516483401.682068
aF1516483401.703287
aF1516483401.724829
aF1516483401.746758
aF1516483401.768345
aF1516483401.790128
aF1516483401.812625
aF1516483401.834587
aF1516483401.856702
aF1516483401.877554
aF1516483401.899373
aF1516483401.921022
aF1516483401.943131
aF1516483401.965147
aF1516483401.988398
aF1516483402.009958
aF1516483402.032201
aF1516483402.054758
aF1516483402.076865
aF1516483402.098876
aF1516483402.12277
aF1516483402.144949
aF1516483402.167278
aF1516483402.190715
aF1516483402.213001
aF1516483402.235174
aF1516483402.25797
aF1516483402.280516
aF1516483402.303113
aF1516483402.325789
aF1516483402.347901
aF1516483402.369829
aF1516483402.395581
aF1516483402.418375
aF1516483402.440913
aF1516483402.46327
aF1516483402.485608
aF1516483402.507689
aF1516483402.530739
aF1516483402.553292
aF1516483402.575706
aF1516483402.602073
aF1516483402.624583
aF1516483402.647701
aF1516483402.670457
aF1516483402.695352
aF1516483402.718126
aF1516483402.739934
aF1516483402.76452
aF1516483402.786806
aF1516483402.80995
aF1516483402.833772
aF1516483402.85638
aF1516483402.87774
aF1516483402.901083
aF1516483402.923493
aF1516483402.9458
aF1516483402.970639
aF1516483402.99556
aF1516483403.018364
aF1516483403.042048
aF1516483403.065233
aF1516483403.088059
aF1516483403.110986
aF1516483403.135279
aF1516483403.158759
aF1516483403.181793
aF1516483403.20412
aF1516483403.227572
aF1516483403.251399
aF1516483403.276594
aF1516483403.299427
aF1516483403.321568
aF1516483403.34549
aF1516483403.369384
aF1516483403.393116
aF1516483403.415723
aF1516483403.439454
aF1516483403.46297
aF1516483403.485988
aF1516483403.510152
aF1516483403.533771
aF1516483403.557545
aF1516483403.5813
aF1516483403.605376
aF1516483403.628439
aF1516483403.652041
aF1516483403.676922
aF1516483403.702391
aF1516483403.72617
aF1516483403.752231
aF1516483403.775442
aF1516483403.804898
aF1516483403.828426
aF1516483403.851864
aF1516483403.877899
aF1516483403.902402
aF1516483403.925757
aF1516483403.950799
aF1516483403.975134
aF1516483404.000698
aF1516483404.022229
aF1516483404.046105
aF1516483404.070503
aF1516483404.09504
aF1516483404.120211
aF1516483404.144312
aF1516483404.167159
aF1516483404.189963
aF1516483404.215925
aF1516483404.240624
aF1516483404.26506
aF1516483404.289431
aF1516483404.314631
aF1516483404.339141
aF1516483404.363826
aF1516483404.390128
aF1516483404.416228
aF1516483404.440048
aF1516483404.46551
aF1516483404.490245
aF1516483404.515321
aF1516483404.539228
aF1516483404.566937
aF1516483404.592503
aF1516483404.617735
aF1516483404.641632
aF1516483404.666714
aF1516483404.69208
aF1516483404.717032
aF1516483404.741361
aF1516483404.766611
aF1516483404.791466
aF1516483404.815774
aF1516483404.840357
aF1516483404.866216
aF1516483404.892068
aF1516483404.915595
aF1516483404.939137
aF1516483404.965927
aF1516483404.990877
aF1516483405.014714
aF1516483405.040011
aF1516483405.066542
aF1516483405.091594
aF1516483405.115203
aF1516483405.139989
aF1516483405.165047
aF1516483405.189455
aF1516483405.212611
aF1516483405.238694
aF1516483405.265677
aF1516483405.290988
aF1516483405.314747
aF1516483405.340628
aF1516483405.365609
aF1516483405.390733
aF1516483405.415311
aF1516483405.440581
aF1516483405.465074
aF1516483405.49034
aF1516483405.515315
aF1516483405.541298
aF1516483405.568553
aF1516483405.592485
aF1516483405.617502
aF1516483405.643837
aF1516483405.669888
aF1516483405.6955
aF1516483405.718984
aF1516483405.745791
aF1516483405.774569
aF1516483405.799383
aF1516483405.824811
aF1516483405.84947
aF1516483405.877584
aF1516483405.909208
aF1516483405.935165
aF1516483405.959245
aF1516483405.985399
aF1516483406.012036
aF1516483406.03897
aF1516483406.065667
aF1516483406.090755
aF1516483406.117689
aF1516483406.145229
aF1516483406.172193
aF1516483406.197177
aF1516483406.222008
aF1516483406.250594
aF1516483406.275737
aF1516483406.30394
aF1516483406.330193
aF1516483406.357571
aF1516483406.386346
aF1516483406.416511
aF1516483406.441591
aF1516483406.468264
aF1516483406.49424
aF1516483406.524701
aF1516483406.549616
aF1516483406.576956
aF1516483406.603766
aF1516483406.62939
aF1516483406.658494
aF1516483406.688491
aF1516483406.713792
aF1516483406.741441
aF1516483406.768068
aF1516483406.793655
aF1516483406.820583
aF1516483406.847645
aF1516483406.875418
aF1516483406.900751
aF1516483406.926177
aF1516483406.954199
aF1516483406.981921
aF1516483407.010551
aF1516483407.039014
aF1516483407.06594
aF1516483407.094108
aF1516483407.119943
aF1516483407.147117
aF1516483407.172451
aF1516483407.200535
aF1516483407.227856
aF1516483407.255816
aF1516483407.283897
aF1516483407.315711
aF1516483407.341638
aF1516483407.367634
aF1516483407.395895
aF1516483407.420425
aF1516483407.446179
aF1516483407.471237
aF1516483407.499681
aF1516483407.525479
aF1516483407.553919
aF1516483407.579138
aF1516483407.6049
aF1516483407.631238
aF1516483407.658928
aF1516483407.685006
aF1516483407.716329
aF1516483407.742404
aF1516483407.768019
aF1516483407.79646
aF1516483407.825288
aF1516483407.852821
aF1516483407.876913
aF1516483407.901993
aF1516483407.92968
aF1516483407.955284
aF1516483407.981184
aF1516483408.005823
aF1516483408.032385
aF1516483408.059469
aF1516483408.084987
aF1516483408.114019
aF1516483408.14204
aF1516483408.171189
aF1516483408.198914
aF1516483408.228372
aF1516483408.256855
aF1516483408.283098
aF1516483408.311127
aF1516483408.337198
aF1516483408.364351
aF1516483408.393525
aF1516483408.422446
aF1516483408.448946
aF1516483408.474525
aF1516483408.501231
aF1516483408.529358
aF1516483408.557556
aF1516483408.584439
aF1516483408.614866
aF1516483408.640298
aF1516483408.667958
aF1516483408.69677
aF1516483408.726479
aF1516483408.754367
aF1516483408.78265
aF1516483408.814142
aF1516483408.842042
aF1516483408.871406
aF1516483408.898486
aF1516483408.928444
aF1516483408.956068
aF1516483408.981917
aF1516483409.01101
aF1516483409.038353
aF1516483409.066188
aF1516483409.095832
aF1516483409.122753
aF1516483409.151852
aF1516483409.178061
aF1516483409.204509
aF1516483409.233256
aF1516483409.264633
aF1516483409.295749
aF1516483409.322532
aF1516483409.351488
aF1516483409.381556
aF1516483409.40758
aF1516483409.434577
aF1516483409.462447
aF1516483409.492358
aF1516483409.524689
aF1516483409.549866
aF1516483409.579153
aF1516483409.605211
aF1516483409.631907
aF1516483409.66328
aF1516483409.693014
aF1516483409.721525
aF1516483409.749251
aF1516483409.777106
aF1516483409.804764
aF1516483409.833052
aF1516483409.862321
aF1516483409.890954
aF1516483409.924452
aF1516483409.952103
aF1516483409.981898
aF1516483410.009526
aF1516483410.039168
aF1516483410.066393
aF1516483410.097368
aF1516483410.129451
aF1516483410.160379
aF1516483410.189387
aF1516483410.221434
aF1516483410.247508
aF1516483410.274129
aF1516483410.300321
aF1516483410.330535
aF1516483410.363922
aF1516483410.393121
aF1516483410.425304
aF1516483410.451822
aF1516483410.481942
aF1516483410.50927
aF1516483410.53558
aF1516483410.567341
aF1516483410.597743
aF1516483410.629063
aF1516483410.657766
aF1516483410.688995
aF1516483410.716252
aF1516483410.744669
aF1516483410.771534
aF1516483410.799598
aF1516483410.832455
aF1516483410.862103
aF1516483410.893296
aF1516483410.927685
aF1516483410.956906
aF1516483410.987535
aF1516483411.013922
aF1516483411.043401
aF1516483411.072375
aF1516483411.099081
aF1516483411.131166
aF1516483411.160792
aF1516483411.19242
aF1516483411.226955
aF1516483411.25546
aF1516483411.288601
aF1516483411.319223
aF1516483411.348294
aF1516483411.376761
aF1516483411.406388
aF1516483411.435284
aF1516483411.467385
aF1516483411.497023
aF1516483411.528954
aF1516483411.555731
aF1516483411.587667
aF1516483411.615751
aF1516483411.645403
aF1516483411.674815
aF1516483411.7066
aF1516483411.736249
aF1516483411.767279
aF1516483411.797442
aF1516483411.83064
aF1516483411.863324
aF1516483411.889359
aF1516483411.924001
aF1516483411.949723
aF1516483411.978521
aF1516483412.007828
aF1516483412.036856
aF1516483412.064692
aF1516483412.096549
aF1516483412.129929
aF1516483412.161031
aF1516483412.191316
aF1516483412.223642
aF1516483412.256737
aF1516483412.286443
aF1516483412.316595
aF1516483412.344271
aF1516483412.376116
aF1516483412.404842
aF1516483412.435611
aF1516483412.464365
aF1516483412.497046
aF1516483412.532063
aF1516483412.560948
aF1516483412.59338
aF1516483412.62134
aF1516483412.653269
aF1516483412.681021
aF1516483412.712791
aF1516483412.74167
aF1516483412.772692
aF1516483412.801659
aF1516483412.832947
aF1516483412.862049
aF1516483412.892203
aF1516483412.925239
aF1516483412.956282
aF1516483412.983354
aF1516483413.016573
aF1516483413.04616
aF1516483413.076933
aF1516483413.10638
aF1516483413.135439
aF1516483413.163955
aF1516483413.19372
aF1516483413.222509
aF1516483413.253523
aF1516483413.285099
aF1516483413.314775
aF1516483413.346847
aF1516483413.379076
aF1516483413.405797
aF1516483413.436055
aF1516483413.462468
aF1516483413.490644
aF1516483413.521511
aF1516483413.551016
aF1516483413.58184
aF1516483413.611994
aF1516483413.644261
aF1516483413.672374
aF1516483413.700256
aF1516483413.729622
aF1516483413.758789
aF1516483413.790611
aF1516483413.822303
aF1516483413.856609
aF1516483413.886319
aF1516483413.918182
aF1516483413.948327
aF1516483413.979129
aF1516483414.011784
aF1516483414.039164
aF1516483414.070873
aF1516483414.099129
aF1516483414.136999
aF1516483414.163882
aF1516483414.189426
aF1516483414.22106
aF1516483414.250671
aF1516483414.28211
as.