(dp0
S'ay'
p1
(lp2
I0
aI0
aI0
aI0
aI0
aI0
aI0
aI0
aI0
aI0
aI0
aI0
aF0.0
aF0.0
aF0.0
aF0.0
aF-0.2750186469611242
aF-0.2750186469611242
aF-0.2750186469611242
aF-0.2750186469611242
aF-0.2750186469611242
aF0.0
aF0.0
aF0.0
aF0.0
aF0.0
aF1.2041887899083512
aF1.2041887899083512
aF1.2041887899083512
aF1.2041887899083512
aF5.812715545414047
aF5.812715545414047
aF5.812715545414047
aF5.812715545414047
aF5.812715545414047
aF8.124836598794356
aF8.124836598794356
aF8.124836598794356
aF8.124836598794356
aF8.17984032818658
aF8.17984032818658
aF8.17984032818658
aF8.17984032818658
aF8.17984032818658
aF7.568906048151512
aF7.568906048151512
aF7.568906048151512
aF7.568906048151512
aF6.857786403866319
aF6.857786403866319
aF6.857786403866319
aF6.857786403866319
aF6.857786403866319
aF5.7812848429042045
aF5.7812848429042045
aF5.7812848429042045
aF5.7812848429042045
aF5.7812848429042045
aF5.028912401574843
aF5.028912401574843
aF5.028912401574843
aF5.028912401574843
aF5.028912401574843
aF3.1725365345872545
aF3.1725365345872545
aF3.1725365345872545
aF3.1725365345872545
aF3.1725365345872545
aF3.082173264871457
aF3.082173264871457
aF3.082173264871457
aF3.082173264871457
aF3.107710710660704
aF3.107710710660704
aF3.107710710660704
aF3.107710710660704
aF1.9054863396592179
aF1.9054863396592179
aF1.9054863396592179
aF1.9054863396592179
aF1.9054863396592179
aF0.9900671290600472
aF0.9900671290600472
aF0.9900671290600472
aF0.9900671290600472
aF2.6303569162924667
aF2.6303569162924667
aF2.6303569162924667
aF2.6303569162924667
aF2.8071546179103324
aF2.8071546179103324
aF2.8071546179103324
aF2.8071546179103324
aF2.8071546179103324
aF0.38895494355930427
aF0.38895494355930427
aF0.38895494355930427
aF0.38895494355930427
aF2.3003345399391177
aF2.3003345399391177
aF2.3003345399391177
aF2.3003345399391177
aF2.3003345399391177
aF1.3750932348056213
aF1.3750932348056213
aF1.3750932348056213
aF1.3750932348056213
aF0.31823586291215805
aF0.31823586291215805
aF0.31823586291215805
aF0.31823586291215805
aF0.31823586291215805
aF0.4871758889025629
aF0.4871758889025629
aF0.4871758889025629
aF0.4871758889025629
aF0.0
aF0.0
aF0.0
aF0.0
aF0.0
aF0.0
aF0.0
aF0.0
aF-0.3535954032357312
aF-0.3535954032357312
aF-0.3535954032357312
aF-0.3535954032357312
aF2.4457015390471404
aF2.4457015390471404
aF2.4457015390471404
aF2.4457015390471404
aF-1.1432918037955309
aF-1.1432918037955309
aF-1.1432918037955309
aF-1.1432918037955309
aF-0.7582656980499568
aF-0.7582656980499568
aF-0.7582656980499568
aF-0.7582656980499568
aF-0.7582656980499568
aF-0.681653360682215
aF-0.681653360682215
aF-0.681653360682215
aF-0.681653360682215
aF-3.970090610774515
aF-3.970090610774515
aF-3.970090610774515
aF-3.970090610774515
aF-3.970090610774515
aF-0.3653819166769222
aF-0.3653819166769222
aF-0.3653819166769222
aF-0.3653819166769222
aF0.3044849305641018
aF0.3044849305641018
aF0.3044849305641018
aF0.0
aF0.0
aF0.0
aF0.0
aF-2.724649023821995
aF-2.724649023821995
aF-2.724649023821995
aF-2.724649023821995
aF-5.425725020761608
aF-5.425725020761608
aF-5.425725020761608
aF-5.425725020761608
aF-8.409677340289806
aF-8.409677340289806
aF-8.409677340289806
aF-8.409677340289806
aF-10.643221637395508
aF-10.643221637395508
aF-10.643221637395508
aF-10.643221637395508
aF-7.557119534710321
aF-7.557119534710321
aF-7.557119534710321
aF-7.557119534710321
aF-7.557119534710321
aF-6.0739832600271155
aF-6.0739832600271155
aF-6.0739832600271155
aF-6.0739832600271155
aF-4.791217713844158
aF-4.791217713844158
aF-4.791217713844158
aF-4.791217713844158
aF-2.1019282303457354
aF-2.1019282303457354
aF-2.1019282303457354
aF-2.1019282303457354
aF-3.4357686681071877
aF-3.4357686681071877
aF-3.4357686681071877
aF-3.4357686681071877
aF-1.2906232218104188
aF-1.2906232218104188
aF-1.2906232218104188
aF-1.2906232218104188
aF-7.627838615357467
aF-7.627838615357467
aF-7.627838615357467
aF-7.627838615357467
aF-3.3198679526021424
aF-3.3198679526021424
aF-3.3198679526021424
aF-3.3198679526021424
aF-4.960157739834562
aF-4.960157739834562
aF-4.960157739834562
aF-4.960157739834562
aF-6.13291582723307
aF-6.13291582723307
aF-6.13291582723307
aF-6.13291582723307
aF-7.140662726454904
aF-7.140662726454904
aF-7.140662726454904
aF-7.140662726454904
aF-7.42746788685722
aF-7.42746788685722
aF-7.42746788685722
aF-7.42746788685722
aF-5.8814702071543286
aF-5.8814702071543286
aF-5.8814702071543286
aF-5.8814702071543286
aF-1.9428102988896563
aF-1.9428102988896563
aF-1.9428102988896563
aF-1.9428102988896563
aF-3.643997072234896
aF-3.643997072234896
aF-3.643997072234896
aF-2.4908831739050394
aF-2.4908831739050394
aF-2.4908831739050394
aF-2.4908831739050394
aF-1.8544114480807234
aF-1.8544114480807234
aF-1.8544114480807234
aF-1.8544114480807234
aF-1.81512306994342
aF-1.81512306994342
aF-1.81512306994342
aF0.0
aF0.0
aF0.0
aF0.0
aF-0.7229061577263837
aF-0.7229061577263837
aF-0.7229061577263837
aF-0.7229061577263837
aF-0.9939959668737776
aF-0.9939959668737776
aF-0.9939959668737776
aF-0.9939959668737776
aF-0.9939959668737776
aF-0.9959603857806427
aF-0.9959603857806427
aF-0.9959603857806427
aF-0.9959603857806427
aF0.36145307886319183
aF0.36145307886319183
aF0.36145307886319183
aF0.36145307886319183
aF0.5244998481330012
aF0.5244998481330012
aF0.5244998481330012
aF-0.6325428880105858
aF-0.6325428880105858
aF-0.6325428880105858
aF-0.6325428880105858
aF1.4025950995017336
aF1.4025950995017336
aF1.4025950995017336
aF-0.567717064084035
aF-0.567717064084035
aF-0.567717064084035
aF-0.567717064084035
aF1.4615276667076889
aF1.4615276667076889
aF1.4615276667076889
aF1.4615276667076889
aF0.27305422805425905
aF0.27305422805425905
aF0.27305422805425905
aF0.27305422805425905
aF-1.394737423874273
aF-1.394737423874273
aF-1.394737423874273
aF0.48128263218196743
aF0.48128263218196743
aF0.48128263218196743
aF0.48128263218196743
aF0.48128263218196743
aF-0.7857675627460693
aF-0.7857675627460693
aF-0.7857675627460693
aF-0.7857675627460693
aF0.7307638333538444
aF0.7307638333538444
aF0.7307638333538444
aF0.7307638333538444
aF-0.4871758889025629
aF-0.4871758889025629
aF-0.4871758889025629
aF1.4045595184085988
aF1.4045595184085988
aF1.4045595184085988
aF1.4045595184085988
aF-0.9330989807609572
aF-0.9330989807609572
aF-0.9330989807609572
aF0.0
aF0.0
aF0.0
aF0.0
aF0.0
aF0.0
aF0.0
aF-1.5459976797028911
aF-1.5459976797028911
aF-1.5459976797028911
aF-1.5459976797028911
aF0.249481201171877
aF0.249481201171877
aF0.249481201171877
aF0.41056355153482116
aF0.41056355153482116
aF0.41056355153482116
aF0.41056355153482116
aF0.41056355153482116
aF0.0
aF0.0
aF0.0
aF-1.1609715739573174
aF-1.1609715739573174
aF-1.1609715739573174
aF0.24358794445128146
aF0.24358794445128146
aF0.24358794445128146
aF0.24358794445128146
aF-1.24937042476625
aF-1.24937042476625
aF-1.24937042476625
aF-1.24937042476625
aF-1.2866943839966885
aF-1.2866943839966885
aF-1.2866943839966885
aF-1.0863236554964408
aF-1.0863236554964408
aF-1.0863236554964408
aF-1.0863236554964408
aF-0.49306914562315846
aF-0.49306914562315846
aF-0.49306914562315846
aF0.0
aF0.0
aF0.0
aF0.6325428880105858
aF0.6325428880105858
aF0.6325428880105858
aF0.6325428880105858
aF-0.6993331308440016
aF-0.6993331308440016
aF-0.6993331308440016
aF-0.6993331308440016
aF0.26519655242679835
aF0.26519655242679835
aF0.26519655242679835
aF0.26519655242679835
aF0.26519655242679835
aF0.0
aF0.0
aF0.0
aF0.4753893754613719
aF0.4753893754613719
aF0.4753893754613719
aF0.4753893754613719
aF0.0
aF0.0
aF0.0
aF5.808786707600317
aF5.808786707600317
aF5.808786707600317
aF5.808786707600317
aF5.009268212506192
aF5.009268212506192
aF5.009268212506192
aF1.8426249346395325
aF1.8426249346395325
aF1.8426249346395325
aF2.734471118356321
aF2.734471118356321
aF2.734471118356321
aF1.9015575018454876
aF1.9015575018454876
aF1.9015575018454876
aF1.9015575018454876
aF6.895110363096758
aF6.895110363096758
aF6.895110363096758
aF6.895110363096758
aF1.81512306994342
aF1.81512306994342
aF1.81512306994342
aF1.81512306994342
aF2.795368104469141
aF2.795368104469141
aF2.795368104469141
aF1.8995930829386225
aF1.8995930829386225
aF1.8995930829386225
aF1.8995930829386225
aF1.5459976797028911
aF1.5459976797028911
aF1.5459976797028911
aF2.459452471395197
aF2.459452471395197
aF2.459452471395197
aF2.416235255444163
aF2.416235255444163
aF2.416235255444163
aF2.416235255444163
aF1.681542584276588
aF1.681542584276588
aF1.681542584276588
aF2.5949973759688936
aF2.5949973759688936
aF2.5949973759688936
aF2.5949973759688936
aF2.276761513056736
aF2.276761513056736
aF2.276761513056736
aF1.7817279485267121
aF1.7817279485267121
aF1.7817279485267121
aF1.7817279485267121
aF2.539993646576669
aF2.539993646576669
aF2.539993646576669
aF2.539993646576669
aF2.539993646576669
aF1.7915500430610378
aF1.7915500430610378
aF1.7915500430610378
aF0.7386215089813051
aF0.7386215089813051
aF0.7386215089813051
aF0.7386215089813051
aF0.0
aF0.0
aF0.0
aF-0.39681261918676497
aF-0.39681261918676497
aF-0.39681261918676497
aF-0.47146053764764156
aF-0.47146053764764156
aF-0.47146053764764156
aF-0.4871758889025629
aF-0.4871758889025629
aF-0.4871758889025629
aF-0.3162714440052929
aF-0.3162714440052929
aF-0.3162714440052929
aF-0.3162714440052929
aF0.0
aF0.0
aF0.0
aF-0.2553744578924725
aF-0.2553744578924725
aF-0.2553744578924725
aF-0.2553744578924725
aF-0.20822840412770835
aF-0.20822840412770835
aF-0.20822840412770835
aF-0.20822840412770835
aF0.0
aF0.0
aF0.0
aF0.0
aF0.0
aF0.0
aF0.0
aF0.0
aF0.0
aF0.0
aF0.0
aF-0.2534100389856073
aF-0.2534100389856073
aF-0.2534100389856073
aF-0.21608607975516905
aF-0.21608607975516905
aF-0.21608607975516905
aF-0.22394375538262973
aF-0.22394375538262973
aF-0.22394375538262973
asS'ax'
p3
(lp4
I0
aI0
aI0
aI0
aI0
aI0
aI0
aI0
aI0
aI0
aI0
aI0
aI0
aI0
aI0
aI0
aI0
aI0
aI0
aI0
aI0
aI0
aI0
aI0
aI0
aI0
aI0
aI0
aI0
aI0
aI0
aI0
aI0
aI0
aI0
aI0
aI0
aI0
aI0
aI0
aI0
aI0
aI0
aI0
aI0
aI0
aI0
aI0
aI0
aI0
aI0
aI0
aI0
aI0
aI0
aI0
aI0
aI0
aI0
aI0
aI0
aI0
aI0
aI0
aI0
aI0
aI0
aI0
aI0
aI0
aI0
aI0
aI0
aI0
aI0
aI0
aI0
aI0
aI0
aI0
aI0
aI0
aI0
aI0
aI0
aI0
aI0
aI0
aI0
aI0
aI0
aI0
aI0
aI0
aI0
aI0
aI0
aI0
aI0
aI0
aI0
aI0
aI0
aI0
aI0
aI0
aI0
aI0
aI0
aI0
aI0
aI0
aI0
aI0
aI0
aI0
aI0
aI0
aI0
aI0
aI0
aI0
aI0
aI0
aI0
aI0
aI0
aI0
aI0
aI0
aI0
aI0
aI0
aI0
aI0
aI0
aI0
aI0
aI0
aI0
aI0
aI0
aI0
aI0
aI0
aI0
aI0
aI0
aI0
aI0
aI0
aI0
aI0
aI0
aI0
aI0
aI0
aI0
aI0
aI0
aI0
aI0
aI0
aI0
aI0
aI0
aI0
aI0
aI0
aI0
aI0
aI0
aI0
aI0
aI0
aI0
aI0
aI0
aI0
aI0
aI0
aI0
aI0
aI0
aI0
aI0
aI0
aI0
aI0
aI0
aI0
aI0
aI0
aI0
aI0
aI0
aI0
aI0
aI0
aI0
aI0
aI0
aI0
aI0
aI0
aI0
aI0
aI0
aI0
aI0
aI0
aI0
aI0
aI0
aI0
aI0
aI0
aI0
aI0
aI0
aI0
aI0
aI0
aI0
aI0
aI0
aI0
aI0
aI0
aI0
aI0
aI0
aI0
aI0
aI0
aI0
aI0
aI0
aI0
aI0
aI0
aI0
aI0
aI0
aI0
aI0
aI0
aI0
aI0
aI0
aI0
aI0
aI0
aI0
aI0
aI0
aI0
aI0
aI0
aI0
aI0
aI0
aI0
aI0
aI0
aI0
aI0
aI0
aI0
aI0
aI0
aI0
aI0
aI0
aI0
aI0
aI0
aI0
aI0
aI0
aI0
aI0
aI0
aI0
aI0
aI0
aI0
aI0
aI0
aI0
aI0
aI0
aI0
aI0
aI0
aI0
aI0
aI0
aI0
aI0
aI0
aI0
aI0
aI0
aI0
aI0
aI0
aI0
aI0
aI0
aI0
aI0
aI0
aI0
aI0
aI0
aI0
aI0
aI0
aI0
aI0
aI0
aI0
aI0
aI0
aI0
aI0
aI0
aI0
aI0
aI0
aI0
aI0
aI0
aI0
aI0
aI0
aI0
aI0
aI0
aI0
aI0
aI0
aI0
aI0
aI0
aI0
aI0
aI0
aI0
aI0
aI0
aI0
aI0
aI0
aI0
aI0
aI0
aI0
aI0
aI0
aI0
aI0
aI0
aI0
aI0
aI0
aI0
aI0
aI0
aI0
aI0
aI0
aI0
aI0
aI0
aI0
aI0
aI0
aI0
aI0
aI0
aI0
aI0
aI0
aI0
aI0
aI0
aI0
aI0
aI0
aI0
aI0
aI0
aI0
aI0
aI0
aI0
aI0
aI0
aI0
aI0
aI0
aI0
aI0
aI0
aI0
aI0
aI0
aI0
aI0
aI0
aI0
aI0
aI0
aI0
aI0
aI0
aI0
aI0
aI0
aI0
aI0
aI0
aI0
aI0
aI0
aI0
aI0
aI0
aI0
aI0
aI0
aI0
aI0
aI0
aI0
aI0
aI0
aI0
aI0
aI0
aI0
aI0
aI0
aI0
aI0
aI0
aI0
aI0
aI0
aI0
aI0
aI0
aI0
aI0
aI0
aI0
aI0
aI0
aI0
aI0
aI0
aI0
aI0
aI0
aI0
aI0
aI0
aI0
aI0
aI0
aI0
aI0
aI0
aI0
aI0
aI0
aI0
aI0
aI0
aI0
aI0
aI0
aI0
aI0
aI0
aI0
aI0
aI0
aI0
aI0
aI0
aI0
aI0
aI0
aI0
aI0
aI0
aI0
aI0
asS'time'
p5
(lp6
F1516481968.750259
aF1516481968.771008
aF1516481968.791416
aF1516481968.811871
aF1516481968.83236
aF1516481968.852729
aF1516481968.8732
aF1516481968.893751
aF1516481968.914208
aF1516481968.934693
aF1516481968.955226
aF1516481968.975724
aF1516481968.996252
aF1516481969.016754
aF1516481969.037288
aF1516481969.057818
aF1516481969.078275
aF1516481969.09884
aF1516481969.119841
aF1516481969.141242
aF1516481969.162495
aF1516481969.184498
aF1516481969.205638
aF1516481969.226604
aF1516481969.248432
aF1516481969.269923
aF1516481969.291706
aF1516481969.313384
aF1516481969.334629
aF1516481969.356958
aF1516481969.378635
aF1516481969.40004
aF1516481969.422448
aF1516481969.444025
aF1516481969.465699
aF1516481969.487611
aF1516481969.509195
aF1516481969.530488
aF1516481969.552268
aF1516481969.57396
aF1516481969.596262
aF1516481969.619027
aF1516481969.639932
aF1516481969.661498
aF1516481969.683789
aF1516481969.70585
aF1516481969.728714
aF1516481969.750301
aF1516481969.772102
aF1516481969.792761
aF1516481969.813484
aF1516481969.834221
aF1516481969.854882
aF1516481969.875635
aF1516481969.896432
aF1516481969.917125
aF1516481969.937906
aF1516481969.958702
aF1516481969.979413
aF1516481970.000237
aF1516481970.02122
aF1516481970.041983
aF1516481970.062791
aF1516481970.084025
aF1516481970.104869
aF1516481970.125742
aF1516481970.146979
aF1516481970.169221
aF1516481970.192077
aF1516481970.215208
aF1516481970.238154
aF1516481970.261758
aF1516481970.285696
aF1516481970.308272
aF1516481970.33083
aF1516481970.355122
aF1516481970.378049
aF1516481970.400694
aF1516481970.424204
aF1516481970.446903
aF1516481970.469845
aF1516481970.493491
aF1516481970.516785
aF1516481970.539107
aF1516481970.562506
aF1516481970.585522
aF1516481970.60896
aF1516481970.630944
aF1516481970.655612
aF1516481970.679243
aF1516481970.702978
aF1516481970.726292
aF1516481970.749399
aF1516481970.771472
aF1516481970.79286
aF1516481970.81401
aF1516481970.83509
aF1516481970.856519
aF1516481970.877547
aF1516481970.89864
aF1516481970.920087
aF1516481970.941389
aF1516481970.963225
aF1516481970.988909
aF1516481971.012458
aF1516481971.035665
aF1516481971.059416
aF1516481971.083729
aF1516481971.106318
aF1516481971.128595
aF1516481971.152947
aF1516481971.175687
aF1516481971.202157
aF1516481971.226363
aF1516481971.251523
aF1516481971.275518
aF1516481971.301529
aF1516481971.325438
aF1516481971.349787
aF1516481971.373792
aF1516481971.399126
aF1516481971.423945
aF1516481971.448177
aF1516481971.471588
aF1516481971.49511
aF1516481971.520867
aF1516481971.545309
aF1516481971.568859
aF1516481971.59529
aF1516481971.621589
aF1516481971.646008
aF1516481971.66974
aF1516481971.693986
aF1516481971.717913
aF1516481971.741217
aF1516481971.763557
aF1516481971.785184
aF1516481971.806557
aF1516481971.827932
aF1516481971.849401
aF1516481971.870761
aF1516481971.892159
aF1516481971.914623
aF1516481971.936109
aF1516481971.957594
aF1516481971.981108
aF1516481972.004821
aF1516481972.029029
aF1516481972.053209
aF1516481972.077453
aF1516481972.104982
aF1516481972.129932
aF1516481972.153796
aF1516481972.178275
aF1516481972.205231
aF1516481972.229488
aF1516481972.258204
aF1516481972.284068
aF1516481972.310427
aF1516481972.335236
aF1516481972.359348
aF1516481972.386763
aF1516481972.412241
aF1516481972.435976
aF1516481972.460611
aF1516481972.485534
aF1516481972.510759
aF1516481972.535324
aF1516481972.562571
aF1516481972.588758
aF1516481972.613836
aF1516481972.638201
aF1516481972.663868
aF1516481972.691357
aF1516481972.717328
aF1516481972.741791
aF1516481972.76582
aF1516481972.787451
aF1516481972.809131
aF1516481972.830865
aF1516481972.852892
aF1516481972.874718
aF1516481972.896504
aF1516481972.918653
aF1516481972.940341
aF1516481972.962019
aF1516481972.985836
aF1516481973.01066
aF1516481973.035361
aF1516481973.060433
aF1516481973.086569
aF1516481973.11071
aF1516481973.135502
aF1516481973.160156
aF1516481973.187816
aF1516481973.212203
aF1516481973.237454
aF1516481973.263482
aF1516481973.289195
aF1516481973.313847
aF1516481973.340306
aF1516481973.364963
aF1516481973.392519
aF1516481973.41734
aF1516481973.443308
aF1516481973.468633
aF1516481973.493655
aF1516481973.520454
aF1516481973.546206
aF1516481973.571581
aF1516481973.598838
aF1516481973.624351
aF1516481973.648774
aF1516481973.673695
aF1516481973.698406
aF1516481973.72621
aF1516481973.752833
aF1516481973.776658
aF1516481973.79888
aF1516481973.821641
aF1516481973.843629
aF1516481973.866512
aF1516481973.892419
aF1516481973.917851
aF1516481973.944859
aF1516481973.971785
aF1516481973.996421
aF1516481974.024011
aF1516481974.050982
aF1516481974.078342
aF1516481974.102845
aF1516481974.129452
aF1516481974.156267
aF1516481974.184587
aF1516481974.211451
aF1516481974.236088
aF1516481974.261861
aF1516481974.291381
aF1516481974.318345
aF1516481974.346126
aF1516481974.370856
aF1516481974.399075
aF1516481974.426572
aF1516481974.454727
aF1516481974.481243
aF1516481974.512239
aF1516481974.539099
aF1516481974.565102
aF1516481974.590455
aF1516481974.619332
aF1516481974.644959
aF1516481974.669481
aF1516481974.695617
aF1516481974.725506
aF1516481974.753473
aF1516481974.77704
aF1516481974.799304
aF1516481974.821951
aF1516481974.844163
aF1516481974.866393
aF1516481974.888665
aF1516481974.910858
aF1516481974.933134
aF1516481974.955739
aF1516481974.978524
aF1516481975.004549
aF1516481975.030607
aF1516481975.056526
aF1516481975.085153
aF1516481975.117355
aF1516481975.145562
aF1516481975.172877
aF1516481975.19953
aF1516481975.225437
aF1516481975.253353
aF1516481975.278528
aF1516481975.306789
aF1516481975.331498
aF1516481975.358052
aF1516481975.388963
aF1516481975.41644
aF1516481975.441842
aF1516481975.467271
aF1516481975.495086
aF1516481975.522059
aF1516481975.550284
aF1516481975.5763
aF1516481975.60292
aF1516481975.63132
aF1516481975.657717
aF1516481975.687209
aF1516481975.718317
aF1516481975.747551
aF1516481975.773454
aF1516481975.795949
aF1516481975.818471
aF1516481975.841165
aF1516481975.863706
aF1516481975.886285
aF1516481975.911668
aF1516481975.934174
aF1516481975.956778
aF1516481975.979452
aF1516481976.004883
aF1516481976.032318
aF1516481976.060283
aF1516481976.08729
aF1516481976.114519
aF1516481976.14587
aF1516481976.175033
aF1516481976.204942
aF1516481976.230907
aF1516481976.260804
aF1516481976.286793
aF1516481976.317661
aF1516481976.346122
aF1516481976.376882
aF1516481976.403827
aF1516481976.43282
aF1516481976.458437
aF1516481976.48471
aF1516481976.516677
aF1516481976.545464
aF1516481976.573117
aF1516481976.604534
aF1516481976.631552
aF1516481976.658927
aF1516481976.686261
aF1516481976.716865
aF1516481976.745543
aF1516481976.774689
aF1516481976.797631
aF1516481976.820543
aF1516481976.8433
aF1516481976.867031
aF1516481976.889917
aF1516481976.919821
aF1516481976.946852
aF1516481976.976444
aF1516481977.007761
aF1516481977.033985
aF1516481977.064284
aF1516481977.091771
aF1516481977.122046
aF1516481977.148555
aF1516481977.175083
aF1516481977.204766
aF1516481977.232038
aF1516481977.258598
aF1516481977.287031
aF1516481977.316083
aF1516481977.345629
aF1516481977.37474
aF1516481977.405975
aF1516481977.433904
aF1516481977.464532
aF1516481977.491712
aF1516481977.520904
aF1516481977.548489
aF1516481977.580641
aF1516481977.608943
aF1516481977.640395
aF1516481977.666429
aF1516481977.69686
aF1516481977.725181
aF1516481977.75728
aF1516481977.78121
aF1516481977.804568
aF1516481977.828154
aF1516481977.851172
aF1516481977.874373
aF1516481977.897941
aF1516481977.921067
aF1516481977.944099
aF1516481977.967161
aF1516481977.991209
aF1516481978.015429
aF1516481978.03869
aF1516481978.064265
aF1516481978.094491
aF1516481978.126331
aF1516481978.16031
aF1516481978.190266
aF1516481978.223321
aF1516481978.255109
aF1516481978.283572
aF1516481978.314217
aF1516481978.341947
aF1516481978.368653
aF1516481978.396824
aF1516481978.432379
aF1516481978.461431
aF1516481978.490365
aF1516481978.524973
aF1516481978.556847
aF1516481978.586252
aF1516481978.619754
aF1516481978.6519
aF1516481978.680842
aF1516481978.711536
aF1516481978.738788
aF1516481978.764072
aF1516481978.789557
aF1516481978.814667
aF1516481978.840177
aF1516481978.865472
aF1516481978.890659
aF1516481978.917649
aF1516481978.943068
aF1516481978.968371
aF1516481978.993565
aF1516481979.019797
aF1516481979.04762
aF1516481979.079374
aF1516481979.108705
aF1516481979.141398
aF1516481979.169041
aF1516481979.196042
aF1516481979.223626
aF1516481979.253215
aF1516481979.281857
aF1516481979.310355
aF1516481979.344577
aF1516481979.372761
aF1516481979.40154
aF1516481979.428306
aF1516481979.455866
aF1516481979.486851
aF1516481979.520079
aF1516481979.549702
aF1516481979.581334
aF1516481979.609283
aF1516481979.640303
aF1516481979.666355
aF1516481979.69688
aF1516481979.731368
aF1516481979.75868
aF1516481979.782295
aF1516481979.806433
aF1516481979.82994
aF1516481979.853538
aF1516481979.877153
aF1516481979.901427
aF1516481979.92498
aF1516481979.948704
aF1516481979.972271
aF1516481979.996291
aF1516481980.019952
aF1516481980.043671
aF1516481980.071037
aF1516481980.100342
aF1516481980.131522
aF1516481980.162661
aF1516481980.196382
aF1516481980.228056
aF1516481980.258273
aF1516481980.290334
aF1516481980.323041
aF1516481980.35511
aF1516481980.388283
aF1516481980.418384
aF1516481980.4484
aF1516481980.47952
aF1516481980.508049
aF1516481980.536866
aF1516481980.569109
aF1516481980.603637
aF1516481980.634035
aF1516481980.666241
aF1516481980.696355
aF1516481980.730934
aF1516481980.762038
aF1516481980.786657
aF1516481980.810453
aF1516481980.834308
aF1516481980.859141
aF1516481980.88296
aF1516481980.906772
aF1516481980.930581
aF1516481980.954541
aF1516481980.978353
aF1516481981.002208
aF1516481981.026164
aF1516481981.050746
aF1516481981.083877
aF1516481981.113425
aF1516481981.145698
aF1516481981.174754
aF1516481981.204263
aF1516481981.232806
aF1516481981.260315
aF1516481981.289929
aF1516481981.319573
aF1516481981.350677
aF1516481981.385772
aF1516481981.417788
aF1516481981.451412
aF1516481981.480671
aF1516481981.514162
aF1516481981.545702
aF1516481981.577052
as.